

Microchip Technology PIC LITE Macro Assembler V1.12 build 49521 
                                                                                               Sun Mar 31 02:21:22 2013

HI-TECH Software Omniscient Code Generator (Lite mode) build 49521
     1  0000                     opt subtitle "HI-TECH Software Omniscient Code Generator (Lite mode) build 49521"
     2                           opt subtitle "HI-TECH Software Omniscient Code Generator (Lite mode) build 49521"
     3                           
     4                           opt pagewidth 120
     5                           
     6                           	opt lm
     7                           
     8                           	processor	16F1825
     9                           clrc	macro
    10  0000                     	endm
    11                           opt subtitle "HI-TECH Software Omniscient Code Generator (Lite mode) build 49521"
    12                           
    13  0000                     	endm
    14                           opt subtitle "HI-TECH Software Omniscient Code Generator (Lite mode) build 49521"
    15                           
    16  0000                     	endm
    17                           opt subtitle "HI-TECH Software Omniscient Code Generator (Lite mode) build 49521"
    18                           
    19  0000                     	endm
    20                           opt subtitle "HI-TECH Software Omniscient Code Generator (Lite mode) build 49521"
    21                           
    22  0000                     	endm
    23                           opt subtitle "HI-TECH Software Omniscient Code Generator (Lite mode) build 49521"
    24                           
    25  0000                     	endm
    26                           opt subtitle "HI-TECH Software Omniscient Code Generator (Lite mode) build 49521"
    27                           
    28  0000                     	endm
    29                           opt subtitle "HI-TECH Software Omniscient Code Generator (Lite mode) build 49521"
    30                           
    31  0000                     	endm
    32  0000                     indf	equ	0
    33  0000                     indf0	equ	0
    34  0001                     indf1	equ	1
    35  0002                     pc	equ	2
    36  0002                     pcl	equ	2
    37  0003                     status	equ	3
    38  0004                     fsr0l	equ	4
    39  0005                     fsr0h	equ	5
    40  0006                     fsr1l	equ	6
    41  0007                     fsr1h	equ	7
    42  0008                     bsr	equ	8
    43  0009                     wreg	equ	9
    44  000B                     intcon	equ	11
    45  0001                     c	equ	1
    46  0000                     z	equ	0
    47  000A                     pclath	equ	10
    48                           opt subtitle "HI-TECH Software Omniscient Code Generator (Lite mode) build 49521"
    49  0000                     INDF0 equ 00h ;# 
    50                           opt subtitle "HI-TECH Software Omniscient Code Generator (Lite mode) build 49521"
    51  0001                     INDF1 equ 01h ;# 
    52                           opt subtitle "HI-TECH Software Omniscient Code Generator (Lite mode) build 49521"
    53  0002                     PCL equ 02h ;# 
    54                           opt subtitle "HI-TECH Software Omniscient Code Generator (Lite mode) build 49521"
    55  0003                     STATUS equ 03h ;# 
    56                           opt subtitle "HI-TECH Software Omniscient Code Generator (Lite mode) build 49521"
    57  0004                     FSR0L equ 04h ;# 
    58                           opt subtitle "HI-TECH Software Omniscient Code Generator (Lite mode) build 49521"
    59  0005                     FSR0H equ 05h ;# 
    60                           opt subtitle "HI-TECH Software Omniscient Code Generator (Lite mode) build 49521"
    61  0006                     FSR1L equ 06h ;# 
    62                           opt subtitle "HI-TECH Software Omniscient Code Generator (Lite mode) build 49521"
    63  0007                     FSR1H equ 07h ;# 
    64                           opt subtitle "HI-TECH Software Omniscient Code Generator (Lite mode) build 49521"
    65  0008                     BSR equ 08h ;# 
    66                           opt subtitle "HI-TECH Software Omniscient Code Generator (Lite mode) build 49521"
    67  0009                     WREG equ 09h ;# 
    68                           opt subtitle "HI-TECH Software Omniscient Code Generator (Lite mode) build 49521"
    69  000A                     PCLATH equ 0Ah ;# 
    70                           opt subtitle "HI-TECH Software Omniscient Code Generator (Lite mode) build 49521"
    71  000B                     INTCON equ 0Bh ;# 
    72                           opt subtitle "HI-TECH Software Omniscient Code Generator (Lite mode) build 49521"
    73  000C                     PORTA equ 0Ch ;# 
    74                           opt subtitle "HI-TECH Software Omniscient Code Generator (Lite mode) build 49521"
    75  000E                     PORTC equ 0Eh ;# 
    76                           opt subtitle "HI-TECH Software Omniscient Code Generator (Lite mode) build 49521"
    77  0011                     PIR1 equ 011h ;# 
    78                           opt subtitle "HI-TECH Software Omniscient Code Generator (Lite mode) build 49521"
    79  0012                     PIR2 equ 012h ;# 
    80                           opt subtitle "HI-TECH Software Omniscient Code Generator (Lite mode) build 49521"
    81  0013                     PIR3 equ 013h ;# 
    82                           opt subtitle "HI-TECH Software Omniscient Code Generator (Lite mode) build 49521"
    83  0015                     TMR0 equ 015h ;# 
    84                           opt subtitle "HI-TECH Software Omniscient Code Generator (Lite mode) build 49521"
    85  0016                     TMR1 equ 016h ;# 
    86                           opt subtitle "HI-TECH Software Omniscient Code Generator (Lite mode) build 49521"
    87  0016                     TMR1L equ 016h ;# 
    88                           opt subtitle "HI-TECH Software Omniscient Code Generator (Lite mode) build 49521"
    89  0017                     TMR1H equ 017h ;# 
    90                           opt subtitle "HI-TECH Software Omniscient Code Generator (Lite mode) build 49521"
    91  0018                     T1CON equ 018h ;# 
    92                           opt subtitle "HI-TECH Software Omniscient Code Generator (Lite mode) build 49521"
    93  0019                     T1GCON equ 019h ;# 
    94                           opt subtitle "HI-TECH Software Omniscient Code Generator (Lite mode) build 49521"
    95  001A                     TMR2 equ 01Ah ;# 
    96                           opt subtitle "HI-TECH Software Omniscient Code Generator (Lite mode) build 49521"
    97  001B                     PR2 equ 01Bh ;# 
    98                           opt subtitle "HI-TECH Software Omniscient Code Generator (Lite mode) build 49521"
    99  001C                     T2CON equ 01Ch ;# 
   100                           opt subtitle "HI-TECH Software Omniscient Code Generator (Lite mode) build 49521"
   101  001E                     CPSCON0 equ 01Eh ;# 
   102                           opt subtitle "HI-TECH Software Omniscient Code Generator (Lite mode) build 49521"
   103  001F                     CPSCON1 equ 01Fh ;# 
   104                           opt subtitle "HI-TECH Software Omniscient Code Generator (Lite mode) build 49521"
   105  008C                     TRISA equ 08Ch ;# 
   106                           opt subtitle "HI-TECH Software Omniscient Code Generator (Lite mode) build 49521"
   107  008E                     TRISC equ 08Eh ;# 
   108                           opt subtitle "HI-TECH Software Omniscient Code Generator (Lite mode) build 49521"
   109  0091                     PIE1 equ 091h ;# 
   110                           opt subtitle "HI-TECH Software Omniscient Code Generator (Lite mode) build 49521"
   111  0092                     PIE2 equ 092h ;# 
   112                           opt subtitle "HI-TECH Software Omniscient Code Generator (Lite mode) build 49521"
   113  0093                     PIE3 equ 093h ;# 
   114                           opt subtitle "HI-TECH Software Omniscient Code Generator (Lite mode) build 49521"
   115  0095                     OPTION_REG equ 095h ;# 
   116                           opt subtitle "HI-TECH Software Omniscient Code Generator (Lite mode) build 49521"
   117  0096                     PCON equ 096h ;# 
   118                           opt subtitle "HI-TECH Software Omniscient Code Generator (Lite mode) build 49521"
   119  0097                     WDTCON equ 097h ;# 
   120                           opt subtitle "HI-TECH Software Omniscient Code Generator (Lite mode) build 49521"
   121  0098                     OSCTUNE equ 098h ;# 
   122                           opt subtitle "HI-TECH Software Omniscient Code Generator (Lite mode) build 49521"
   123  0099                     OSCCON equ 099h ;# 
   124                           opt subtitle "HI-TECH Software Omniscient Code Generator (Lite mode) build 49521"
   125  009A                     OSCSTAT equ 09Ah ;# 
   126                           opt subtitle "HI-TECH Software Omniscient Code Generator (Lite mode) build 49521"
   127  009B                     ADRES equ 09Bh ;# 
   128                           opt subtitle "HI-TECH Software Omniscient Code Generator (Lite mode) build 49521"
   129  009B                     ADRESL equ 09Bh ;# 
   130                           opt subtitle "HI-TECH Software Omniscient Code Generator (Lite mode) build 49521"
   131  009C                     ADRESH equ 09Ch ;# 
   132                           opt subtitle "HI-TECH Software Omniscient Code Generator (Lite mode) build 49521"
   133  009D                     ADCON0 equ 09Dh ;# 
   134                           opt subtitle "HI-TECH Software Omniscient Code Generator (Lite mode) build 49521"
   135  009E                     ADCON1 equ 09Eh ;# 
   136                           opt subtitle "HI-TECH Software Omniscient Code Generator (Lite mode) build 49521"
   137  010C                     LATA equ 010Ch ;# 
   138                           opt subtitle "HI-TECH Software Omniscient Code Generator (Lite mode) build 49521"
   139  010E                     LATC equ 010Eh ;# 
   140                           opt subtitle "HI-TECH Software Omniscient Code Generator (Lite mode) build 49521"
   141  0111                     CM1CON0 equ 0111h ;# 
   142                           opt subtitle "HI-TECH Software Omniscient Code Generator (Lite mode) build 49521"
   143  0112                     CM1CON1 equ 0112h ;# 
   144                           opt subtitle "HI-TECH Software Omniscient Code Generator (Lite mode) build 49521"
   145  0113                     CM2CON0 equ 0113h ;# 
   146                           opt subtitle "HI-TECH Software Omniscient Code Generator (Lite mode) build 49521"
   147  0114                     CM2CON1 equ 0114h ;# 
   148                           opt subtitle "HI-TECH Software Omniscient Code Generator (Lite mode) build 49521"
   149  0115                     CMOUT equ 0115h ;# 
   150                           opt subtitle "HI-TECH Software Omniscient Code Generator (Lite mode) build 49521"
   151  0116                     BORCON equ 0116h ;# 
   152                           opt subtitle "HI-TECH Software Omniscient Code Generator (Lite mode) build 49521"
   153  0117                     FVRCON equ 0117h ;# 
   154                           opt subtitle "HI-TECH Software Omniscient Code Generator (Lite mode) build 49521"
   155  0118                     DACCON0 equ 0118h ;# 
   156                           opt subtitle "HI-TECH Software Omniscient Code Generator (Lite mode) build 49521"
   157  0119                     DACCON1 equ 0119h ;# 
   158                           opt subtitle "HI-TECH Software Omniscient Code Generator (Lite mode) build 49521"
   159  011A                     SRCON0 equ 011Ah ;# 
   160                           opt subtitle "HI-TECH Software Omniscient Code Generator (Lite mode) build 49521"
   161  011B                     SRCON1 equ 011Bh ;# 
   162                           opt subtitle "HI-TECH Software Omniscient Code Generator (Lite mode) build 49521"
   163  011D                     APFCON0 equ 011Dh ;# 
   164                           opt subtitle "HI-TECH Software Omniscient Code Generator (Lite mode) build 49521"
   165  011E                     APFCON1 equ 011Eh ;# 
   166                           opt subtitle "HI-TECH Software Omniscient Code Generator (Lite mode) build 49521"
   167  018C                     ANSELA equ 018Ch ;# 
   168                           opt subtitle "HI-TECH Software Omniscient Code Generator (Lite mode) build 49521"
   169  018E                     ANSELC equ 018Eh ;# 
   170                           opt subtitle "HI-TECH Software Omniscient Code Generator (Lite mode) build 49521"
   171  0191                     EEADR equ 0191h ;# 
   172                           opt subtitle "HI-TECH Software Omniscient Code Generator (Lite mode) build 49521"
   173  0191                     EEADRL equ 0191h ;# 
   174                           opt subtitle "HI-TECH Software Omniscient Code Generator (Lite mode) build 49521"
   175  0192                     EEADRH equ 0192h ;# 
   176                           opt subtitle "HI-TECH Software Omniscient Code Generator (Lite mode) build 49521"
   177  0193                     EEDAT equ 0193h ;# 
   178                           opt subtitle "HI-TECH Software Omniscient Code Generator (Lite mode) build 49521"
   179  0193                     EEDATL equ 0193h ;# 
   180                           opt subtitle "HI-TECH Software Omniscient Code Generator (Lite mode) build 49521"
   181  0193                     EEDATA equ 0193h ;# 
   182                           opt subtitle "HI-TECH Software Omniscient Code Generator (Lite mode) build 49521"
   183  0194                     EEDATH equ 0194h ;# 
   184                           opt subtitle "HI-TECH Software Omniscient Code Generator (Lite mode) build 49521"
   185  0195                     EECON1 equ 0195h ;# 
   186                           opt subtitle "HI-TECH Software Omniscient Code Generator (Lite mode) build 49521"
   187  0196                     EECON2 equ 0196h ;# 
   188                           opt subtitle "HI-TECH Software Omniscient Code Generator (Lite mode) build 49521"
   189  0199                     RCREG equ 0199h ;# 
   190                           opt subtitle "HI-TECH Software Omniscient Code Generator (Lite mode) build 49521"
   191  019A                     TXREG equ 019Ah ;# 
   192                           opt subtitle "HI-TECH Software Omniscient Code Generator (Lite mode) build 49521"
   193  019B                     SPBRG equ 019Bh ;# 
   194                           opt subtitle "HI-TECH Software Omniscient Code Generator (Lite mode) build 49521"
   195  019B                     SPBRGL equ 019Bh ;# 
   196                           opt subtitle "HI-TECH Software Omniscient Code Generator (Lite mode) build 49521"
   197  019C                     SPBRGH equ 019Ch ;# 
   198                           opt subtitle "HI-TECH Software Omniscient Code Generator (Lite mode) build 49521"
   199  019D                     RCSTA equ 019Dh ;# 
   200                           opt subtitle "HI-TECH Software Omniscient Code Generator (Lite mode) build 49521"
   201  019E                     TXSTA equ 019Eh ;# 
   202                           opt subtitle "HI-TECH Software Omniscient Code Generator (Lite mode) build 49521"
   203  019F                     BAUDCON equ 019Fh ;# 
   204                           opt subtitle "HI-TECH Software Omniscient Code Generator (Lite mode) build 49521"
   205  020C                     WPUA equ 020Ch ;# 
   206                           opt subtitle "HI-TECH Software Omniscient Code Generator (Lite mode) build 49521"
   207  020E                     WPUC equ 020Eh ;# 
   208                           opt subtitle "HI-TECH Software Omniscient Code Generator (Lite mode) build 49521"
   209  0211                     SSP1BUF equ 0211h ;# 
   210                           opt subtitle "HI-TECH Software Omniscient Code Generator (Lite mode) build 49521"
   211  0211                     SSPBUF equ 0211h ;# 
   212                           opt subtitle "HI-TECH Software Omniscient Code Generator (Lite mode) build 49521"
   213  0212                     SSP1ADD equ 0212h ;# 
   214                           opt subtitle "HI-TECH Software Omniscient Code Generator (Lite mode) build 49521"
   215  0212                     SSPADD equ 0212h ;# 
   216                           opt subtitle "HI-TECH Software Omniscient Code Generator (Lite mode) build 49521"
   217  0213                     SSP1MSK equ 0213h ;# 
   218                           opt subtitle "HI-TECH Software Omniscient Code Generator (Lite mode) build 49521"
   219  0213                     SSPMSK equ 0213h ;# 
   220                           opt subtitle "HI-TECH Software Omniscient Code Generator (Lite mode) build 49521"
   221  0214                     SSP1STAT equ 0214h ;# 
   222                           opt subtitle "HI-TECH Software Omniscient Code Generator (Lite mode) build 49521"
   223  0214                     SSPSTAT equ 0214h ;# 
   224                           opt subtitle "HI-TECH Software Omniscient Code Generator (Lite mode) build 49521"
   225  0215                     SSP1CON1 equ 0215h ;# 
   226                           opt subtitle "HI-TECH Software Omniscient Code Generator (Lite mode) build 49521"
   227  0215                     SSPCON1 equ 0215h ;# 
   228                           opt subtitle "HI-TECH Software Omniscient Code Generator (Lite mode) build 49521"
   229  0215                     SSPCON equ 0215h ;# 
   230                           opt subtitle "HI-TECH Software Omniscient Code Generator (Lite mode) build 49521"
   231  0216                     SSP1CON2 equ 0216h ;# 
   232                           opt subtitle "HI-TECH Software Omniscient Code Generator (Lite mode) build 49521"
   233  0216                     SSPCON2 equ 0216h ;# 
   234                           opt subtitle "HI-TECH Software Omniscient Code Generator (Lite mode) build 49521"
   235  0217                     SSP1CON3 equ 0217h ;# 
   236                           opt subtitle "HI-TECH Software Omniscient Code Generator (Lite mode) build 49521"
   237  0217                     SSPCON3 equ 0217h ;# 
   238                           opt subtitle "HI-TECH Software Omniscient Code Generator (Lite mode) build 49521"
   239  0291                     CCPR1L equ 0291h ;# 
   240                           opt subtitle "HI-TECH Software Omniscient Code Generator (Lite mode) build 49521"
   241  0292                     CCPR1H equ 0292h ;# 
   242                           opt subtitle "HI-TECH Software Omniscient Code Generator (Lite mode) build 49521"
   243  0293                     CCP1CON equ 0293h ;# 
   244                           opt subtitle "HI-TECH Software Omniscient Code Generator (Lite mode) build 49521"
   245  0294                     PWM1CON equ 0294h ;# 
   246                           opt subtitle "HI-TECH Software Omniscient Code Generator (Lite mode) build 49521"
   247  0295                     CCP1AS equ 0295h ;# 
   248                           opt subtitle "HI-TECH Software Omniscient Code Generator (Lite mode) build 49521"
   249  0295                     ECCP1AS equ 0295h ;# 
   250                           opt subtitle "HI-TECH Software Omniscient Code Generator (Lite mode) build 49521"
   251  0296                     PSTR1CON equ 0296h ;# 
   252                           opt subtitle "HI-TECH Software Omniscient Code Generator (Lite mode) build 49521"
   253  0298                     CCPR2L equ 0298h ;# 
   254                           opt subtitle "HI-TECH Software Omniscient Code Generator (Lite mode) build 49521"
   255  0299                     CCPR2H equ 0299h ;# 
   256                           opt subtitle "HI-TECH Software Omniscient Code Generator (Lite mode) build 49521"
   257  029A                     CCP2CON equ 029Ah ;# 
   258                           opt subtitle "HI-TECH Software Omniscient Code Generator (Lite mode) build 49521"
   259  029B                     PWM2CON equ 029Bh ;# 
   260                           opt subtitle "HI-TECH Software Omniscient Code Generator (Lite mode) build 49521"
   261  029C                     CCP2AS equ 029Ch ;# 
   262                           opt subtitle "HI-TECH Software Omniscient Code Generator (Lite mode) build 49521"
   263  029D                     PSTR2CON equ 029Dh ;# 
   264                           opt subtitle "HI-TECH Software Omniscient Code Generator (Lite mode) build 49521"
   265  029E                     CCPTMRS equ 029Eh ;# 
   266                           opt subtitle "HI-TECH Software Omniscient Code Generator (Lite mode) build 49521"
   267  0311                     CCPR3L equ 0311h ;# 
   268                           opt subtitle "HI-TECH Software Omniscient Code Generator (Lite mode) build 49521"
   269  0312                     CCPR3H equ 0312h ;# 
   270                           opt subtitle "HI-TECH Software Omniscient Code Generator (Lite mode) build 49521"
   271  0313                     CCP3CON equ 0313h ;# 
   272                           opt subtitle "HI-TECH Software Omniscient Code Generator (Lite mode) build 49521"
   273  0318                     CCPR4L equ 0318h ;# 
   274                           opt subtitle "HI-TECH Software Omniscient Code Generator (Lite mode) build 49521"
   275  0319                     CCPR4H equ 0319h ;# 
   276                           opt subtitle "HI-TECH Software Omniscient Code Generator (Lite mode) build 49521"
   277  031A                     CCP4CON equ 031Ah ;# 
   278                           opt subtitle "HI-TECH Software Omniscient Code Generator (Lite mode) build 49521"
   279  038C                     INLVLA equ 038Ch ;# 
   280                           opt subtitle "HI-TECH Software Omniscient Code Generator (Lite mode) build 49521"
   281  038E                     INLVLC equ 038Eh ;# 
   282                           opt subtitle "HI-TECH Software Omniscient Code Generator (Lite mode) build 49521"
   283  0391                     IOCAP equ 0391h ;# 
   284                           opt subtitle "HI-TECH Software Omniscient Code Generator (Lite mode) build 49521"
   285  0392                     IOCAN equ 0392h ;# 
   286                           opt subtitle "HI-TECH Software Omniscient Code Generator (Lite mode) build 49521"
   287  0393                     IOCAF equ 0393h ;# 
   288                           opt subtitle "HI-TECH Software Omniscient Code Generator (Lite mode) build 49521"
   289  039A                     CLKRCON equ 039Ah ;# 
   290                           opt subtitle "HI-TECH Software Omniscient Code Generator (Lite mode) build 49521"
   291  039C                     MDCON equ 039Ch ;# 
   292                           opt subtitle "HI-TECH Software Omniscient Code Generator (Lite mode) build 49521"
   293  039D                     MDSRC equ 039Dh ;# 
   294                           opt subtitle "HI-TECH Software Omniscient Code Generator (Lite mode) build 49521"
   295  039E                     MDCARL equ 039Eh ;# 
   296                           opt subtitle "HI-TECH Software Omniscient Code Generator (Lite mode) build 49521"
   297  039F                     MDCARH equ 039Fh ;# 
   298                           opt subtitle "HI-TECH Software Omniscient Code Generator (Lite mode) build 49521"
   299  0415                     TMR4 equ 0415h ;# 
   300                           opt subtitle "HI-TECH Software Omniscient Code Generator (Lite mode) build 49521"
   301  0416                     PR4 equ 0416h ;# 
   302                           opt subtitle "HI-TECH Software Omniscient Code Generator (Lite mode) build 49521"
   303  0417                     T4CON equ 0417h ;# 
   304                           opt subtitle "HI-TECH Software Omniscient Code Generator (Lite mode) build 49521"
   305  041C                     TMR6 equ 041Ch ;# 
   306                           opt subtitle "HI-TECH Software Omniscient Code Generator (Lite mode) build 49521"
   307  041D                     PR6 equ 041Dh ;# 
   308                           opt subtitle "HI-TECH Software Omniscient Code Generator (Lite mode) build 49521"
   309  041E                     T6CON equ 041Eh ;# 
   310                           opt subtitle "HI-TECH Software Omniscient Code Generator (Lite mode) build 49521"
   311  0FE4                     STATUS_SHAD equ 0FE4h ;# 
   312                           opt subtitle "HI-TECH Software Omniscient Code Generator (Lite mode) build 49521"
   313  0FE5                     WREG_SHAD equ 0FE5h ;# 
   314                           opt subtitle "HI-TECH Software Omniscient Code Generator (Lite mode) build 49521"
   315  0FE6                     BSR_SHAD equ 0FE6h ;# 
   316                           opt subtitle "HI-TECH Software Omniscient Code Generator (Lite mode) build 49521"
   317  0FE7                     PCLATH_SHAD equ 0FE7h ;# 
   318                           opt subtitle "HI-TECH Software Omniscient Code Generator (Lite mode) build 49521"
   319  0FE8                     FSR0L_SHAD equ 0FE8h ;# 
   320                           opt subtitle "HI-TECH Software Omniscient Code Generator (Lite mode) build 49521"
   321  0FE9                     FSR0H_SHAD equ 0FE9h ;# 
   322                           opt subtitle "HI-TECH Software Omniscient Code Generator (Lite mode) build 49521"
   323  0FEA                     FSR1L_SHAD equ 0FEAh ;# 
   324                           opt subtitle "HI-TECH Software Omniscient Code Generator (Lite mode) build 49521"
   325  0FEB                     FSR1H_SHAD equ 0FEBh ;# 
   326                           opt subtitle "HI-TECH Software Omniscient Code Generator (Lite mode) build 49521"
   327  0FED                     STKPTR equ 0FEDh ;# 
   328                           opt subtitle "HI-TECH Software Omniscient Code Generator (Lite mode) build 49521"
   329  0FEE                     TOSL equ 0FEEh ;# 
   330                           opt subtitle "HI-TECH Software Omniscient Code Generator (Lite mode) build 49521"
   331  0FEF                     TOSH equ 0FEFh ;# 
   332                           opt subtitle "HI-TECH Software Omniscient Code Generator (Lite mode) build 49521"
   333  0000                     INDF0 equ 00h ;# 
   334                           opt subtitle "HI-TECH Software Omniscient Code Generator (Lite mode) build 49521"
   335  0001                     INDF1 equ 01h ;# 
   336                           opt subtitle "HI-TECH Software Omniscient Code Generator (Lite mode) build 49521"
   337  0002                     PCL equ 02h ;# 
   338                           opt subtitle "HI-TECH Software Omniscient Code Generator (Lite mode) build 49521"
   339  0003                     STATUS equ 03h ;# 
   340                           opt subtitle "HI-TECH Software Omniscient Code Generator (Lite mode) build 49521"
   341  0004                     FSR0L equ 04h ;# 
   342                           opt subtitle "HI-TECH Software Omniscient Code Generator (Lite mode) build 49521"
   343  0005                     FSR0H equ 05h ;# 
   344                           opt subtitle "HI-TECH Software Omniscient Code Generator (Lite mode) build 49521"
   345  0006                     FSR1L equ 06h ;# 
   346                           opt subtitle "HI-TECH Software Omniscient Code Generator (Lite mode) build 49521"
   347  0007                     FSR1H equ 07h ;# 
   348                           opt subtitle "HI-TECH Software Omniscient Code Generator (Lite mode) build 49521"
   349  0008                     BSR equ 08h ;# 
   350                           opt subtitle "HI-TECH Software Omniscient Code Generator (Lite mode) build 49521"
   351  0009                     WREG equ 09h ;# 
   352                           opt subtitle "HI-TECH Software Omniscient Code Generator (Lite mode) build 49521"
   353  000A                     PCLATH equ 0Ah ;# 
   354                           opt subtitle "HI-TECH Software Omniscient Code Generator (Lite mode) build 49521"
   355  000B                     INTCON equ 0Bh ;# 
   356                           opt subtitle "HI-TECH Software Omniscient Code Generator (Lite mode) build 49521"
   357  000C                     PORTA equ 0Ch ;# 
   358                           opt subtitle "HI-TECH Software Omniscient Code Generator (Lite mode) build 49521"
   359  000E                     PORTC equ 0Eh ;# 
   360                           opt subtitle "HI-TECH Software Omniscient Code Generator (Lite mode) build 49521"
   361  0011                     PIR1 equ 011h ;# 
   362                           opt subtitle "HI-TECH Software Omniscient Code Generator (Lite mode) build 49521"
   363  0012                     PIR2 equ 012h ;# 
   364                           opt subtitle "HI-TECH Software Omniscient Code Generator (Lite mode) build 49521"
   365  0013                     PIR3 equ 013h ;# 
   366                           opt subtitle "HI-TECH Software Omniscient Code Generator (Lite mode) build 49521"
   367  0015                     TMR0 equ 015h ;# 
   368                           opt subtitle "HI-TECH Software Omniscient Code Generator (Lite mode) build 49521"
   369  0016                     TMR1 equ 016h ;# 
   370                           opt subtitle "HI-TECH Software Omniscient Code Generator (Lite mode) build 49521"
   371  0016                     TMR1L equ 016h ;# 
   372                           opt subtitle "HI-TECH Software Omniscient Code Generator (Lite mode) build 49521"
   373  0017                     TMR1H equ 017h ;# 
   374                           opt subtitle "HI-TECH Software Omniscient Code Generator (Lite mode) build 49521"
   375  0018                     T1CON equ 018h ;# 
   376                           opt subtitle "HI-TECH Software Omniscient Code Generator (Lite mode) build 49521"
   377  0019                     T1GCON equ 019h ;# 
   378                           opt subtitle "HI-TECH Software Omniscient Code Generator (Lite mode) build 49521"
   379  001A                     TMR2 equ 01Ah ;# 
   380                           opt subtitle "HI-TECH Software Omniscient Code Generator (Lite mode) build 49521"
   381  001B                     PR2 equ 01Bh ;# 
   382                           opt subtitle "HI-TECH Software Omniscient Code Generator (Lite mode) build 49521"
   383  001C                     T2CON equ 01Ch ;# 
   384                           opt subtitle "HI-TECH Software Omniscient Code Generator (Lite mode) build 49521"
   385  001E                     CPSCON0 equ 01Eh ;# 
   386                           opt subtitle "HI-TECH Software Omniscient Code Generator (Lite mode) build 49521"
   387  001F                     CPSCON1 equ 01Fh ;# 
   388                           opt subtitle "HI-TECH Software Omniscient Code Generator (Lite mode) build 49521"
   389  008C                     TRISA equ 08Ch ;# 
   390                           opt subtitle "HI-TECH Software Omniscient Code Generator (Lite mode) build 49521"
   391  008E                     TRISC equ 08Eh ;# 
   392                           opt subtitle "HI-TECH Software Omniscient Code Generator (Lite mode) build 49521"
   393  0091                     PIE1 equ 091h ;# 
   394                           opt subtitle "HI-TECH Software Omniscient Code Generator (Lite mode) build 49521"
   395  0092                     PIE2 equ 092h ;# 
   396                           opt subtitle "HI-TECH Software Omniscient Code Generator (Lite mode) build 49521"
   397  0093                     PIE3 equ 093h ;# 
   398                           opt subtitle "HI-TECH Software Omniscient Code Generator (Lite mode) build 49521"
   399  0095                     OPTION_REG equ 095h ;# 
   400                           opt subtitle "HI-TECH Software Omniscient Code Generator (Lite mode) build 49521"
   401  0096                     PCON equ 096h ;# 
   402                           opt subtitle "HI-TECH Software Omniscient Code Generator (Lite mode) build 49521"
   403  0097                     WDTCON equ 097h ;# 
   404                           opt subtitle "HI-TECH Software Omniscient Code Generator (Lite mode) build 49521"
   405  0098                     OSCTUNE equ 098h ;# 
   406                           opt subtitle "HI-TECH Software Omniscient Code Generator (Lite mode) build 49521"
   407  0099                     OSCCON equ 099h ;# 
   408                           opt subtitle "HI-TECH Software Omniscient Code Generator (Lite mode) build 49521"
   409  009A                     OSCSTAT equ 09Ah ;# 
   410                           opt subtitle "HI-TECH Software Omniscient Code Generator (Lite mode) build 49521"
   411  009B                     ADRES equ 09Bh ;# 
   412                           opt subtitle "HI-TECH Software Omniscient Code Generator (Lite mode) build 49521"
   413  009B                     ADRESL equ 09Bh ;# 
   414                           opt subtitle "HI-TECH Software Omniscient Code Generator (Lite mode) build 49521"
   415  009C                     ADRESH equ 09Ch ;# 
   416                           opt subtitle "HI-TECH Software Omniscient Code Generator (Lite mode) build 49521"
   417  009D                     ADCON0 equ 09Dh ;# 
   418                           opt subtitle "HI-TECH Software Omniscient Code Generator (Lite mode) build 49521"
   419  009E                     ADCON1 equ 09Eh ;# 
   420                           opt subtitle "HI-TECH Software Omniscient Code Generator (Lite mode) build 49521"
   421  010C                     LATA equ 010Ch ;# 
   422                           opt subtitle "HI-TECH Software Omniscient Code Generator (Lite mode) build 49521"
   423  010E                     LATC equ 010Eh ;# 
   424                           opt subtitle "HI-TECH Software Omniscient Code Generator (Lite mode) build 49521"
   425  0111                     CM1CON0 equ 0111h ;# 
   426                           opt subtitle "HI-TECH Software Omniscient Code Generator (Lite mode) build 49521"
   427  0112                     CM1CON1 equ 0112h ;# 
   428                           opt subtitle "HI-TECH Software Omniscient Code Generator (Lite mode) build 49521"
   429  0113                     CM2CON0 equ 0113h ;# 
   430                           opt subtitle "HI-TECH Software Omniscient Code Generator (Lite mode) build 49521"
   431  0114                     CM2CON1 equ 0114h ;# 
   432                           opt subtitle "HI-TECH Software Omniscient Code Generator (Lite mode) build 49521"
   433  0115                     CMOUT equ 0115h ;# 
   434                           opt subtitle "HI-TECH Software Omniscient Code Generator (Lite mode) build 49521"
   435  0116                     BORCON equ 0116h ;# 
   436                           opt subtitle "HI-TECH Software Omniscient Code Generator (Lite mode) build 49521"
   437  0117                     FVRCON equ 0117h ;# 
   438                           opt subtitle "HI-TECH Software Omniscient Code Generator (Lite mode) build 49521"
   439  0118                     DACCON0 equ 0118h ;# 
   440                           opt subtitle "HI-TECH Software Omniscient Code Generator (Lite mode) build 49521"
   441  0119                     DACCON1 equ 0119h ;# 
   442                           opt subtitle "HI-TECH Software Omniscient Code Generator (Lite mode) build 49521"
   443  011A                     SRCON0 equ 011Ah ;# 
   444                           opt subtitle "HI-TECH Software Omniscient Code Generator (Lite mode) build 49521"
   445  011B                     SRCON1 equ 011Bh ;# 
   446                           opt subtitle "HI-TECH Software Omniscient Code Generator (Lite mode) build 49521"
   447  011D                     APFCON0 equ 011Dh ;# 
   448                           opt subtitle "HI-TECH Software Omniscient Code Generator (Lite mode) build 49521"
   449  011E                     APFCON1 equ 011Eh ;# 
   450                           opt subtitle "HI-TECH Software Omniscient Code Generator (Lite mode) build 49521"
   451  018C                     ANSELA equ 018Ch ;# 
   452                           opt subtitle "HI-TECH Software Omniscient Code Generator (Lite mode) build 49521"
   453  018E                     ANSELC equ 018Eh ;# 
   454                           opt subtitle "HI-TECH Software Omniscient Code Generator (Lite mode) build 49521"
   455  0191                     EEADR equ 0191h ;# 
   456                           opt subtitle "HI-TECH Software Omniscient Code Generator (Lite mode) build 49521"
   457  0191                     EEADRL equ 0191h ;# 
   458                           opt subtitle "HI-TECH Software Omniscient Code Generator (Lite mode) build 49521"
   459  0192                     EEADRH equ 0192h ;# 
   460                           opt subtitle "HI-TECH Software Omniscient Code Generator (Lite mode) build 49521"
   461  0193                     EEDAT equ 0193h ;# 
   462                           opt subtitle "HI-TECH Software Omniscient Code Generator (Lite mode) build 49521"
   463  0193                     EEDATL equ 0193h ;# 
   464                           opt subtitle "HI-TECH Software Omniscient Code Generator (Lite mode) build 49521"
   465  0193                     EEDATA equ 0193h ;# 
   466                           opt subtitle "HI-TECH Software Omniscient Code Generator (Lite mode) build 49521"
   467  0194                     EEDATH equ 0194h ;# 
   468                           opt subtitle "HI-TECH Software Omniscient Code Generator (Lite mode) build 49521"
   469  0195                     EECON1 equ 0195h ;# 
   470                           opt subtitle "HI-TECH Software Omniscient Code Generator (Lite mode) build 49521"
   471  0196                     EECON2 equ 0196h ;# 
   472                           opt subtitle "HI-TECH Software Omniscient Code Generator (Lite mode) build 49521"
   473  0199                     RCREG equ 0199h ;# 
   474                           opt subtitle "HI-TECH Software Omniscient Code Generator (Lite mode) build 49521"
   475  019A                     TXREG equ 019Ah ;# 
   476                           opt subtitle "HI-TECH Software Omniscient Code Generator (Lite mode) build 49521"
   477  019B                     SPBRG equ 019Bh ;# 
   478                           opt subtitle "HI-TECH Software Omniscient Code Generator (Lite mode) build 49521"
   479  019B                     SPBRGL equ 019Bh ;# 
   480                           opt subtitle "HI-TECH Software Omniscient Code Generator (Lite mode) build 49521"
   481  019C                     SPBRGH equ 019Ch ;# 
   482                           opt subtitle "HI-TECH Software Omniscient Code Generator (Lite mode) build 49521"
   483  019D                     RCSTA equ 019Dh ;# 
   484                           opt subtitle "HI-TECH Software Omniscient Code Generator (Lite mode) build 49521"
   485  019E                     TXSTA equ 019Eh ;# 
   486                           opt subtitle "HI-TECH Software Omniscient Code Generator (Lite mode) build 49521"
   487  019F                     BAUDCON equ 019Fh ;# 
   488                           opt subtitle "HI-TECH Software Omniscient Code Generator (Lite mode) build 49521"
   489  020C                     WPUA equ 020Ch ;# 
   490                           opt subtitle "HI-TECH Software Omniscient Code Generator (Lite mode) build 49521"
   491  020E                     WPUC equ 020Eh ;# 
   492                           opt subtitle "HI-TECH Software Omniscient Code Generator (Lite mode) build 49521"
   493  0211                     SSP1BUF equ 0211h ;# 
   494                           opt subtitle "HI-TECH Software Omniscient Code Generator (Lite mode) build 49521"
   495  0211                     SSPBUF equ 0211h ;# 
   496                           opt subtitle "HI-TECH Software Omniscient Code Generator (Lite mode) build 49521"
   497  0212                     SSP1ADD equ 0212h ;# 
   498                           opt subtitle "HI-TECH Software Omniscient Code Generator (Lite mode) build 49521"
   499  0212                     SSPADD equ 0212h ;# 
   500                           opt subtitle "HI-TECH Software Omniscient Code Generator (Lite mode) build 49521"
   501  0213                     SSP1MSK equ 0213h ;# 
   502                           opt subtitle "HI-TECH Software Omniscient Code Generator (Lite mode) build 49521"
   503  0213                     SSPMSK equ 0213h ;# 
   504                           opt subtitle "HI-TECH Software Omniscient Code Generator (Lite mode) build 49521"
   505  0214                     SSP1STAT equ 0214h ;# 
   506                           opt subtitle "HI-TECH Software Omniscient Code Generator (Lite mode) build 49521"
   507  0214                     SSPSTAT equ 0214h ;# 
   508                           opt subtitle "HI-TECH Software Omniscient Code Generator (Lite mode) build 49521"
   509  0215                     SSP1CON1 equ 0215h ;# 
   510                           opt subtitle "HI-TECH Software Omniscient Code Generator (Lite mode) build 49521"
   511  0215                     SSPCON1 equ 0215h ;# 
   512                           opt subtitle "HI-TECH Software Omniscient Code Generator (Lite mode) build 49521"
   513  0215                     SSPCON equ 0215h ;# 
   514                           opt subtitle "HI-TECH Software Omniscient Code Generator (Lite mode) build 49521"
   515  0216                     SSP1CON2 equ 0216h ;# 
   516                           opt subtitle "HI-TECH Software Omniscient Code Generator (Lite mode) build 49521"
   517  0216                     SSPCON2 equ 0216h ;# 
   518                           opt subtitle "HI-TECH Software Omniscient Code Generator (Lite mode) build 49521"
   519  0217                     SSP1CON3 equ 0217h ;# 
   520                           opt subtitle "HI-TECH Software Omniscient Code Generator (Lite mode) build 49521"
   521  0217                     SSPCON3 equ 0217h ;# 
   522                           opt subtitle "HI-TECH Software Omniscient Code Generator (Lite mode) build 49521"
   523  0291                     CCPR1L equ 0291h ;# 
   524                           opt subtitle "HI-TECH Software Omniscient Code Generator (Lite mode) build 49521"
   525  0292                     CCPR1H equ 0292h ;# 
   526                           opt subtitle "HI-TECH Software Omniscient Code Generator (Lite mode) build 49521"
   527  0293                     CCP1CON equ 0293h ;# 
   528                           opt subtitle "HI-TECH Software Omniscient Code Generator (Lite mode) build 49521"
   529  0294                     PWM1CON equ 0294h ;# 
   530                           opt subtitle "HI-TECH Software Omniscient Code Generator (Lite mode) build 49521"
   531  0295                     CCP1AS equ 0295h ;# 
   532                           opt subtitle "HI-TECH Software Omniscient Code Generator (Lite mode) build 49521"
   533  0295                     ECCP1AS equ 0295h ;# 
   534                           opt subtitle "HI-TECH Software Omniscient Code Generator (Lite mode) build 49521"
   535  0296                     PSTR1CON equ 0296h ;# 
   536                           opt subtitle "HI-TECH Software Omniscient Code Generator (Lite mode) build 49521"
   537  0298                     CCPR2L equ 0298h ;# 
   538                           opt subtitle "HI-TECH Software Omniscient Code Generator (Lite mode) build 49521"
   539  0299                     CCPR2H equ 0299h ;# 
   540                           opt subtitle "HI-TECH Software Omniscient Code Generator (Lite mode) build 49521"
   541  029A                     CCP2CON equ 029Ah ;# 
   542                           opt subtitle "HI-TECH Software Omniscient Code Generator (Lite mode) build 49521"
   543  029B                     PWM2CON equ 029Bh ;# 
   544                           opt subtitle "HI-TECH Software Omniscient Code Generator (Lite mode) build 49521"
   545  029C                     CCP2AS equ 029Ch ;# 
   546                           opt subtitle "HI-TECH Software Omniscient Code Generator (Lite mode) build 49521"
   547  029D                     PSTR2CON equ 029Dh ;# 
   548                           opt subtitle "HI-TECH Software Omniscient Code Generator (Lite mode) build 49521"
   549  029E                     CCPTMRS equ 029Eh ;# 
   550                           opt subtitle "HI-TECH Software Omniscient Code Generator (Lite mode) build 49521"
   551  0311                     CCPR3L equ 0311h ;# 
   552                           opt subtitle "HI-TECH Software Omniscient Code Generator (Lite mode) build 49521"
   553  0312                     CCPR3H equ 0312h ;# 
   554                           opt subtitle "HI-TECH Software Omniscient Code Generator (Lite mode) build 49521"
   555  0313                     CCP3CON equ 0313h ;# 
   556                           opt subtitle "HI-TECH Software Omniscient Code Generator (Lite mode) build 49521"
   557  0318                     CCPR4L equ 0318h ;# 
   558                           opt subtitle "HI-TECH Software Omniscient Code Generator (Lite mode) build 49521"
   559  0319                     CCPR4H equ 0319h ;# 
   560                           opt subtitle "HI-TECH Software Omniscient Code Generator (Lite mode) build 49521"
   561  031A                     CCP4CON equ 031Ah ;# 
   562                           opt subtitle "HI-TECH Software Omniscient Code Generator (Lite mode) build 49521"
   563  038C                     INLVLA equ 038Ch ;# 
   564                           opt subtitle "HI-TECH Software Omniscient Code Generator (Lite mode) build 49521"
   565  038E                     INLVLC equ 038Eh ;# 
   566                           opt subtitle "HI-TECH Software Omniscient Code Generator (Lite mode) build 49521"
   567  0391                     IOCAP equ 0391h ;# 
   568                           opt subtitle "HI-TECH Software Omniscient Code Generator (Lite mode) build 49521"
   569  0392                     IOCAN equ 0392h ;# 
   570                           opt subtitle "HI-TECH Software Omniscient Code Generator (Lite mode) build 49521"
   571  0393                     IOCAF equ 0393h ;# 
   572                           opt subtitle "HI-TECH Software Omniscient Code Generator (Lite mode) build 49521"
   573  039A                     CLKRCON equ 039Ah ;# 
   574                           opt subtitle "HI-TECH Software Omniscient Code Generator (Lite mode) build 49521"
   575  039C                     MDCON equ 039Ch ;# 
   576                           opt subtitle "HI-TECH Software Omniscient Code Generator (Lite mode) build 49521"
   577  039D                     MDSRC equ 039Dh ;# 
   578                           opt subtitle "HI-TECH Software Omniscient Code Generator (Lite mode) build 49521"
   579  039E                     MDCARL equ 039Eh ;# 
   580                           opt subtitle "HI-TECH Software Omniscient Code Generator (Lite mode) build 49521"
   581  039F                     MDCARH equ 039Fh ;# 
   582                           opt subtitle "HI-TECH Software Omniscient Code Generator (Lite mode) build 49521"
   583  0415                     TMR4 equ 0415h ;# 
   584                           opt subtitle "HI-TECH Software Omniscient Code Generator (Lite mode) build 49521"
   585  0416                     PR4 equ 0416h ;# 
   586                           opt subtitle "HI-TECH Software Omniscient Code Generator (Lite mode) build 49521"
   587  0417                     T4CON equ 0417h ;# 
   588                           opt subtitle "HI-TECH Software Omniscient Code Generator (Lite mode) build 49521"
   589  041C                     TMR6 equ 041Ch ;# 
   590                           opt subtitle "HI-TECH Software Omniscient Code Generator (Lite mode) build 49521"
   591  041D                     PR6 equ 041Dh ;# 
   592                           opt subtitle "HI-TECH Software Omniscient Code Generator (Lite mode) build 49521"
   593  041E                     T6CON equ 041Eh ;# 
   594                           opt subtitle "HI-TECH Software Omniscient Code Generator (Lite mode) build 49521"
   595  0FE4                     STATUS_SHAD equ 0FE4h ;# 
   596                           opt subtitle "HI-TECH Software Omniscient Code Generator (Lite mode) build 49521"
   597  0FE5                     WREG_SHAD equ 0FE5h ;# 
   598                           opt subtitle "HI-TECH Software Omniscient Code Generator (Lite mode) build 49521"
   599  0FE6                     BSR_SHAD equ 0FE6h ;# 
   600                           opt subtitle "HI-TECH Software Omniscient Code Generator (Lite mode) build 49521"
   601  0FE7                     PCLATH_SHAD equ 0FE7h ;# 
   602                           opt subtitle "HI-TECH Software Omniscient Code Generator (Lite mode) build 49521"
   603  0FE8                     FSR0L_SHAD equ 0FE8h ;# 
   604                           opt subtitle "HI-TECH Software Omniscient Code Generator (Lite mode) build 49521"
   605  0FE9                     FSR0H_SHAD equ 0FE9h ;# 
   606                           opt subtitle "HI-TECH Software Omniscient Code Generator (Lite mode) build 49521"
   607  0FEA                     FSR1L_SHAD equ 0FEAh ;# 
   608                           opt subtitle "HI-TECH Software Omniscient Code Generator (Lite mode) build 49521"
   609  0FEB                     FSR1H_SHAD equ 0FEBh ;# 
   610                           opt subtitle "HI-TECH Software Omniscient Code Generator (Lite mode) build 49521"
   611  0FED                     STKPTR equ 0FEDh ;# 
   612                           opt subtitle "HI-TECH Software Omniscient Code Generator (Lite mode) build 49521"
   613  0FEE                     TOSL equ 0FEEh ;# 
   614                           opt subtitle "HI-TECH Software Omniscient Code Generator (Lite mode) build 49521"
   615  0FEF                     TOSH equ 0FEFh ;# 
   616                           opt subtitle "HI-TECH Software Omniscient Code Generator (Lite mode) build 49521"
   617                           
   618                           opt pagewidth 120
   619                           
   620                           	opt lm
   621                           
   622                           	processor	16F1825
   623                           clrc	macro
   624                           	bcf	3,0
   625                           	endm
   626                           clrz	macro
   627                           	bcf	3,2
   628                           	endm
   629                           setc	macro
   630                           	bsf	3,0
   631                           	endm
   632                           setz	macro
   633                           	bsf	3,2
   634                           	endm
   635                           skipc	macro
   636                           	btfss	3,0
   637                           	endm
   638                           skipz	macro
   639                           	btfss	3,2
   640                           	endm
   641                           skipnc	macro
   642                           	btfsc	3,0
   643                           	endm
   644                           skipnz	macro
   645                           	btfsc	3,2
   646                           	endm
   647                           indf	equ	0
   648                           indf0	equ	0
   649                           indf1	equ	1
   650                           pc	equ	2
   651  0042                     __pnvBANK0:
   652  0042                     _myaddress:
   653  0042                            ds      1
   654                           opt subtitle "HI-TECH Software Omniscient Code Generator (Lite mode) build 49521"
   655                           
   656  0011                     _PIR1bits	set	0x11
   657                           opt subtitle "HI-TECH Software Omniscient Code Generator (Lite mode) build 49521"
   658  000C                     _PORTA	set	0xC
   659                           opt subtitle "HI-TECH Software Omniscient Code Generator (Lite mode) build 49521"
   660  000C                     _PORTAbits	set	0xC
   661                           opt subtitle "HI-TECH Software Omniscient Code Generator (Lite mode) build 49521"
   662  000E                     _PORTC	set	0xE
   663                           opt subtitle "HI-TECH Software Omniscient Code Generator (Lite mode) build 49521"
   664  0018                     _CARRY	set	0x18
   665                           opt subtitle "HI-TECH Software Omniscient Code Generator (Lite mode) build 49521"
   666  005F                     _GIE	set	0x5F
   667                           opt subtitle "HI-TECH Software Omniscient Code Generator (Lite mode) build 49521"
   668  0099                     _OSCCON	set	0x99
   669                           opt subtitle "HI-TECH Software Omniscient Code Generator (Lite mode) build 49521"
   670  008C                     _TRISA	set	0x8C
   671                           opt subtitle "HI-TECH Software Omniscient Code Generator (Lite mode) build 49521"
   672  008E                     _TRISC	set	0x8E
   673                           opt subtitle "HI-TECH Software Omniscient Code Generator (Lite mode) build 49521"
   674  010E                     _LATCbits	set	0x10E
   675                           opt subtitle "HI-TECH Software Omniscient Code Generator (Lite mode) build 49521"
   676  0191                     _EEADR	set	0x191
   677                           opt subtitle "HI-TECH Software Omniscient Code Generator (Lite mode) build 49521"
   678  0192                     _EEADRH	set	0x192
   679                           opt subtitle "HI-TECH Software Omniscient Code Generator (Lite mode) build 49521"
   680  0191                     _EEADRL	set	0x191
   681                           opt subtitle "HI-TECH Software Omniscient Code Generator (Lite mode) build 49521"
   682  0195                     _EECON1	set	0x195
   683                           opt subtitle "HI-TECH Software Omniscient Code Generator (Lite mode) build 49521"
   684  0195                     _EECON1bits	set	0x195
   685                           opt subtitle "HI-TECH Software Omniscient Code Generator (Lite mode) build 49521"
   686  0196                     _EECON2	set	0x196
   687                           opt subtitle "HI-TECH Software Omniscient Code Generator (Lite mode) build 49521"
   688  0193                     _EEDATA	set	0x193
   689                           opt subtitle "HI-TECH Software Omniscient Code Generator (Lite mode) build 49521"
   690  0194                     _EEDATH	set	0x194
   691                           opt subtitle "HI-TECH Software Omniscient Code Generator (Lite mode) build 49521"
   692  0193                     _EEDATL	set	0x193
   693                           opt subtitle "HI-TECH Software Omniscient Code Generator (Lite mode) build 49521"
   694  0199                     _RCREG	set	0x199
   695                           opt subtitle "HI-TECH Software Omniscient Code Generator (Lite mode) build 49521"
   696  019D                     _RCSTA	set	0x19D
   697                           opt subtitle "HI-TECH Software Omniscient Code Generator (Lite mode) build 49521"
   698  019D                     _RCSTAbits	set	0x19D
   699                           opt subtitle "HI-TECH Software Omniscient Code Generator (Lite mode) build 49521"
   700  019B                     _SPBRGL	set	0x19B
   701                           opt subtitle "HI-TECH Software Omniscient Code Generator (Lite mode) build 49521"
   702  019A                     _TXREG	set	0x19A
   703                           opt subtitle "HI-TECH Software Omniscient Code Generator (Lite mode) build 49521"
   704  019E                     _TXSTA	set	0x19E
   705                           opt subtitle "HI-TECH Software Omniscient Code Generator (Lite mode) build 49521"
   706  019E                     _TXSTAbits	set	0x19E
   707                           opt subtitle "HI-TECH Software Omniscient Code Generator (Lite mode) build 49521"
   708  0CA8                     _RD	set	0xCA8
   709                           opt subtitle "HI-TECH Software Omniscient Code Generator (Lite mode) build 49521"
   710  0CA9                     _WR	set	0xCA9
   711                           opt subtitle "HI-TECH Software Omniscient Code Generator (Lite mode) build 49521"
   712  0CAA                     _WREN	set	0xCAA
   713                           opt subtitle "HI-TECH Software Omniscient Code Generator (Lite mode) build 49521"
   714                           
   715  0000                     __CFG_CPD$OFF equ 0x0
   716                           opt subtitle "HI-TECH Software Omniscient Code Generator (Lite mode) build 49521"
   717  0000                     __CFG_BOREN$SBODEN equ 0x0
   718                           opt subtitle "HI-TECH Software Omniscient Code Generator (Lite mode) build 49521"
   719  0000                     __CFG_IESO$ON equ 0x0
   720                           opt subtitle "HI-TECH Software Omniscient Code Generator (Lite mode) build 49521"
   721  0000                     __CFG_FOSC$INTOSC equ 0x0
   722                           opt subtitle "HI-TECH Software Omniscient Code Generator (Lite mode) build 49521"
   723  0000                     __CFG_FCMEN$OFF equ 0x0
   724                           opt subtitle "HI-TECH Software Omniscient Code Generator (Lite mode) build 49521"
   725  0000                     __CFG_WDTE$OFF equ 0x0
   726                           opt subtitle "HI-TECH Software Omniscient Code Generator (Lite mode) build 49521"
   727  0000                     __CFG_CP$OFF equ 0x0
   728                           opt subtitle "HI-TECH Software Omniscient Code Generator (Lite mode) build 49521"
   729  0000                     __CFG_PWRTE$ON equ 0x0
   730                           opt subtitle "HI-TECH Software Omniscient Code Generator (Lite mode) build 49521"
   731  0000                     __CFG_CLKOUTEN$OFF equ 0x0
   732                           opt subtitle "HI-TECH Software Omniscient Code Generator (Lite mode) build 49521"
   733  0000                     __CFG_PLLEN$ON equ 0x0
   734                           opt subtitle "HI-TECH Software Omniscient Code Generator (Lite mode) build 49521"
   735  0000                     __CFG_WRT$OFF equ 0x0
   736                           opt subtitle "HI-TECH Software Omniscient Code Generator (Lite mode) build 49521"
   737  0000                     __CFG_STVREN$ON equ 0x0
   738                           opt subtitle "HI-TECH Software Omniscient Code Generator (Lite mode) build 49521"
   739  0000                     __CFG_BORV$LO equ 0x0
   740                           opt subtitle "HI-TECH Software Omniscient Code Generator (Lite mode) build 49521"
   741  0000                     __CFG_LVP$OFF equ 0x0
   742                           opt subtitle "HI-TECH Software Omniscient Code Generator (Lite mode) build 49521"
   743                           
   744                           opt pagewidth 120
   745                           
   746  04DF                     start_initialization:
   747                           opt subtitle "HI-TECH Software Omniscient Code Generator (Lite mode) build 49521"
   748                           
   749  04DF                     __initialization:
   750                           opt subtitle "HI-TECH Software Omniscient Code Generator (Lite mode) build 49521"
   751                           
   752  03E0                     __pbitbssCOMMON:
   753  03E0                     calc_crc16@dogen:
   754  03E0                            ds      1
   755                           opt subtitle "HI-TECH Software Omniscient Code Generator (Lite mode) build 49521"
   756  03E1                     process_packet@write_en:
   757  03E1                            ds      1
   758                           opt subtitle "HI-TECH Software Omniscient Code Generator (Lite mode) build 49521"
   759                           
   760                           opt pagewidth 120
   761  003D                     __pbssBANK0:
   762  003D                     process_packet@pseq:
   763  003D                            ds      2
   764                           opt subtitle "HI-TECH Software Omniscient Code Generator (Lite mode) build 49521"
   765  003F                     process_packet@seqno:
   766  003F                            ds      2
   767                           opt subtitle "HI-TECH Software Omniscient Code Generator (Lite mode) build 49521"
   768  0041                     _cmd:
   769  0041                            ds      1
   770                           opt subtitle "HI-TECH Software Omniscient Code Generator (Lite mode) build 49521"
   771                           
   772                           opt pagewidth 120
   773  00A0                     __pbssBANK1:
   774  00A0                     _pkt:
   775  00A0                            ds      80
   776                           opt subtitle "HI-TECH Software Omniscient Code Generator (Lite mode) build 49521"
   777                           
   778                           opt pagewidth 120
   779                           
   780                           	opt lm
   781  0507                     clear_ram:
   782  0507  0064               	clrwdt			;clear the watchdog before getting into this loop
   783  0508                     clrloop:
   784  0508  0180               	clrf	indf0		;clear RAM location pointed to by FSR
   785  0509  3101               	addfsr	0,1
   786  050A  0B89               	decfsz wreg		;Have we reached the end of clearing yet?
   787  050B  2D08               	goto clrloop	;have we reached the end yet?
   788  050C  3400               	retlw	0		;all done for this memory range, return
   789                           opt subtitle "HI-TECH Software Omniscient Code Generator (Lite mode) build 49521"
   790                           
   791                           opt pagewidth 120
   792  04DF  01FC               	clrf	((__pbitbssCOMMON/8)+0)&07Fh
   793                           opt subtitle "HI-TECH Software Omniscient Code Generator (Lite mode) build 49521"
   794                           
   795                           opt pagewidth 120
   796  04E0  01BD               	clrf	((__pbssBANK0)+0)&07Fh
   797  04E1  01BE               	clrf	((__pbssBANK0)+1)&07Fh
   798  04E2  01BF               	clrf	((__pbssBANK0)+2)&07Fh
   799  04E3  01C0               	clrf	((__pbssBANK0)+3)&07Fh
   800  04E4  01C1               	clrf	((__pbssBANK0)+4)&07Fh
   801                           opt subtitle "HI-TECH Software Omniscient Code Generator (Lite mode) build 49521"
   802                           
   803                           opt pagewidth 120
   804  04E5  30A0               	movlw	low(__pbssBANK1)
   805  04E6  0084               	movwf	fsr0l
   806  04E7  3000               	movlw	high(__pbssBANK1)
   807  04E8  0085               	movwf	fsr0h
   808  04E9  3050               	movlw	050h
   809  04EA  3185  2507  3184   	fcall	clear_ram
   810                           opt subtitle "HI-TECH Software Omniscient Code Generator (Lite mode) build 49521"
   811                           
   812                           opt pagewidth 120
   813                           
   814                           	opt lm
   815  04ED                     end_of_initialization:
   816  04ED                     __end_of__initialization:movlb 0
      + 04ED  0020               	movlb	0
   817  04EE  3183  2B77         ljmp _main	;jump to C main() function
   818                           opt subtitle "HI-TECH Software Omniscient Code Generator (Lite mode) build 49521"
   819                           
   820  0070                     __pcstackCOMMON:
   821  0070                     ?_start_app:	; 0 bytes @ 0x0
   822  0070                     ?_tx_wait_empty:	; 0 bytes @ 0x0
   823  0070                     ?_putc:	; 0 bytes @ 0x0
   824  0070                     ?_send_query_response:	; 0 bytes @ 0x0
   825  0070                     ?_do_bootloader:	; 0 bytes @ 0x0
   826  0070                     ?_isr_redirect:	; 0 bytes @ 0x0
   827  0070                     ??_isr_redirect:	; 0 bytes @ 0x0
   828  0070                     ?_eeprom_read:	; 1 bytes @ 0x0
   829  0070                     ?_getc:	; 1 bytes @ 0x0
   830  0070                     ?_check_appspace:	; 1 bytes @ 0x0
   831  0070                     ?_process_packet:	; 1 bytes @ 0x0
   832  0070                     ?_main:	; 2 bytes @ 0x0
   833  0070                     	ds	1
   834                           opt subtitle "HI-TECH Software Omniscient Code Generator (Lite mode) build 49521"
   835  0071                     ?_flash_read_row:	; 0 bytes @ 0x1
   836                           opt subtitle "HI-TECH Software Omniscient Code Generator (Lite mode) build 49521"
   837  0071                     ?_flash_write_row:	; 0 bytes @ 0x1
   838                           opt subtitle "HI-TECH Software Omniscient Code Generator (Lite mode) build 49521"
   839  0071                     ?_eeprom_write:	; 0 bytes @ 0x1
   840  0071                     ??_eeprom_read:	; 0 bytes @ 0x1
   841  0071                     ??_start_app:	; 0 bytes @ 0x1
   842  0071                     ??_tx_wait_empty:	; 0 bytes @ 0x1
   843  0071                     ??_putc:	; 0 bytes @ 0x1
   844  0071                     ??_getc:	; 0 bytes @ 0x1
   845                           opt subtitle "HI-TECH Software Omniscient Code Generator (Lite mode) build 49521"
   846  0071                     ?_calc_crc16:	; 2 bytes @ 0x1
   847                           opt subtitle "HI-TECH Software Omniscient Code Generator (Lite mode) build 49521"
   848  0071                     ?_read_configmem_word:	; 2 bytes @ 0x1
   849                           opt subtitle "HI-TECH Software Omniscient Code Generator (Lite mode) build 49521"
   850  0071                     putc@c:	; 1 bytes @ 0x1
   851                           opt subtitle "HI-TECH Software Omniscient Code Generator (Lite mode) build 49521"
   852  0071                     eeprom_write@value:	; 1 bytes @ 0x1
   853                           opt subtitle "HI-TECH Software Omniscient Code Generator (Lite mode) build 49521"
   854  0071                     calc_crc16@crcin:	; 2 bytes @ 0x1
   855                           opt subtitle "HI-TECH Software Omniscient Code Generator (Lite mode) build 49521"
   856  0071                     flash_read_row@pm_word_addr:	; 2 bytes @ 0x1
   857                           opt subtitle "HI-TECH Software Omniscient Code Generator (Lite mode) build 49521"
   858  0071                     flash_write_row@pm_word_addr:	; 2 bytes @ 0x1
   859  0071                     	ds	1
   860  0072                     ??_eeprom_write:	; 0 bytes @ 0x2
   861  0072                     	ds	1
   862  0073                     ??_read_configmem_word:	; 0 bytes @ 0x3
   863                           opt subtitle "HI-TECH Software Omniscient Code Generator (Lite mode) build 49521"
   864  0073                     calc_crc16@buf:	; 1 bytes @ 0x3
   865                           opt subtitle "HI-TECH Software Omniscient Code Generator (Lite mode) build 49521"
   866  0073                     flash_read_row@buffer:	; 1 bytes @ 0x3
   867                           opt subtitle "HI-TECH Software Omniscient Code Generator (Lite mode) build 49521"
   868  0073                     flash_write_row@buffer:	; 1 bytes @ 0x3
   869  0073                     	ds	1
   870  0074                     ??_flash_read_row:	; 0 bytes @ 0x4
   871  0074                     ??_flash_write_row:	; 0 bytes @ 0x4
   872                           opt subtitle "HI-TECH Software Omniscient Code Generator (Lite mode) build 49521"
   873  0074                     calc_crc16@len:	; 1 bytes @ 0x4
   874                           opt subtitle "HI-TECH Software Omniscient Code Generator (Lite mode) build 49521"
   875  0074                     eeprom_read@addr:	; 1 bytes @ 0x4
   876                           opt subtitle "HI-TECH Software Omniscient Code Generator (Lite mode) build 49521"
   877  0074                     eeprom_write@addr:	; 1 bytes @ 0x4
   878  0074                     	ds	1
   879  0075                     ??_calc_crc16:	; 0 bytes @ 0x5
   880                           opt subtitle "HI-TECH Software Omniscient Code Generator (Lite mode) build 49521"
   881  0075                     read_configmem_word@wordaddr:	; 1 bytes @ 0x5
   882                           opt subtitle "HI-TECH Software Omniscient Code Generator (Lite mode) build 49521"
   883  0075                     flash_read_row@pma:	; 1 bytes @ 0x5
   884                           opt subtitle "HI-TECH Software Omniscient Code Generator (Lite mode) build 49521"
   885  0075                     flash_write_row@b:	; 1 bytes @ 0x5
   886  0075                     	ds	1
   887                           opt subtitle "HI-TECH Software Omniscient Code Generator (Lite mode) build 49521"
   888  0076                     read_configmem_word@retval:	; 2 bytes @ 0x6
   889                           opt subtitle "HI-TECH Software Omniscient Code Generator (Lite mode) build 49521"
   890  0076                     flash_read_row@wa:	; 2 bytes @ 0x6
   891                           opt subtitle "HI-TECH Software Omniscient Code Generator (Lite mode) build 49521"
   892  0076                     flash_write_row@wa:	; 2 bytes @ 0x6
   893  0076                     	ds	1
   894                           opt subtitle "HI-TECH Software Omniscient Code Generator (Lite mode) build 49521"
   895  0077                     calc_crc16@i:	; 1 bytes @ 0x7
   896  0077                     	ds	1
   897                           opt subtitle "HI-TECH Software Omniscient Code Generator (Lite mode) build 49521"
   898  0078                     calc_crc16@j:	; 1 bytes @ 0x8
   899                           opt subtitle "HI-TECH Software Omniscient Code Generator (Lite mode) build 49521"
   900  0078                     flash_read_row@i:	; 2 bytes @ 0x8
   901                           opt subtitle "HI-TECH Software Omniscient Code Generator (Lite mode) build 49521"
   902  0078                     flash_write_row@v:	; 2 bytes @ 0x8
   903  0078                     	ds	1
   904                           opt subtitle "HI-TECH Software Omniscient Code Generator (Lite mode) build 49521"
   905  0079                     calc_crc16@crc:	; 2 bytes @ 0x9
   906  0079                     	ds	1
   907                           opt subtitle "HI-TECH Software Omniscient Code Generator (Lite mode) build 49521"
   908  007A                     flash_write_row@i:	; 1 bytes @ 0xA
   909  007A                     	ds	1
   910                           opt subtitle "HI-TECH Software Omniscient Code Generator (Lite mode) build 49521"
   911  007B                     flash_write_row@j:	; 1 bytes @ 0xB
   912  007B                     	ds	1
   913                           opt subtitle "HI-TECH Software Omniscient Code Generator (Lite mode) build 49521"
   914                           
   915  0020                     __pcstackBANK0:
   916  0020                     ??_send_query_response:	; 0 bytes @ 0x0
   917  0020                     ??_check_appspace:	; 0 bytes @ 0x0
   918  0020                     	ds	2
   919                           opt subtitle "HI-TECH Software Omniscient Code Generator (Lite mode) build 49521"
   920  0022                     send_query_response@v:	; 2 bytes @ 0x2
   921  0022                     	ds	2
   922                           opt subtitle "HI-TECH Software Omniscient Code Generator (Lite mode) build 49521"
   923  0024                     send_query_response@q:	; 1 bytes @ 0x4
   924                           opt subtitle "HI-TECH Software Omniscient Code Generator (Lite mode) build 49521"
   925  0024                     check_appspace@appcrc16:	; 2 bytes @ 0x4
   926  0024                     	ds	1
   927                           opt subtitle "HI-TECH Software Omniscient Code Generator (Lite mode) build 49521"
   928  0025                     send_query_response@i:	; 1 bytes @ 0x5
   929  0025                     	ds	1
   930                           opt subtitle "HI-TECH Software Omniscient Code Generator (Lite mode) build 49521"
   931  0026                     check_appspace@rowsused:	; 2 bytes @ 0x6
   932  0026                     	ds	2
   933                           opt subtitle "HI-TECH Software Omniscient Code Generator (Lite mode) build 49521"
   934  0028                     check_appspace@pmaddr:	; 2 bytes @ 0x8
   935  0028                     	ds	2
   936                           opt subtitle "HI-TECH Software Omniscient Code Generator (Lite mode) build 49521"
   937  002A                     check_appspace@i:	; 2 bytes @ 0xA
   938  002A                     	ds	2
   939                           opt subtitle "HI-TECH Software Omniscient Code Generator (Lite mode) build 49521"
   940  002C                     check_appspace@crc16:	; 2 bytes @ 0xC
   941  002C                     	ds	2
   942  002E                     ??_process_packet:	; 0 bytes @ 0xE
   943  002E                     	ds	2
   944                           opt subtitle "HI-TECH Software Omniscient Code Generator (Lite mode) build 49521"
   945  0030                     process_packet@crc16:	; 2 bytes @ 0x10
   946  0030                     	ds	2
   947                           opt subtitle "HI-TECH Software Omniscient Code Generator (Lite mode) build 49521"
   948  0032                     process_packet@eeaddress:	; 1 bytes @ 0x12
   949  0032                     	ds	1
   950                           opt subtitle "HI-TECH Software Omniscient Code Generator (Lite mode) build 49521"
   951  0033                     process_packet@param:	; 2 bytes @ 0x13
   952  0033                     	ds	2
   953                           opt subtitle "HI-TECH Software Omniscient Code Generator (Lite mode) build 49521"
   954  0035                     process_packet@acknak:	; 1 bytes @ 0x15
   955  0035                     	ds	1
   956                           opt subtitle "HI-TECH Software Omniscient Code Generator (Lite mode) build 49521"
   957  0036                     process_packet@i:	; 1 bytes @ 0x16
   958  0036                     	ds	1
   959  0037                     ??_do_bootloader:	; 0 bytes @ 0x17
   960  0037                     	ds	1
   961                           opt subtitle "HI-TECH Software Omniscient Code Generator (Lite mode) build 49521"
   962  0038                     do_bootloader@i:	; 1 bytes @ 0x18
   963  0038                     	ds	1
   964                           opt subtitle "HI-TECH Software Omniscient Code Generator (Lite mode) build 49521"
   965  0039                     do_bootloader@c:	; 1 bytes @ 0x19
   966  0039                     	ds	1
   967  003A                     ??_main:	; 0 bytes @ 0x1A
   968  003A                     	ds	3
   969                           opt subtitle "HI-TECH Software Omniscient Code Generator (Lite mode) build 49521"
   970                           
   971                           opt pagewidth 120
   972                           
   973                           	opt lm
   974                           
   975                           	processor	16F1825
   976                           clrc	macro
   977                           	bcf	3,0
   978                           	endm
   979                           clrz	macro
   980                           	bcf	3,2
   981                           	endm
   982                           setc	macro
   983                           	bsf	3,0
   984                           	endm
   985                           setz	macro
   986                           	bsf	3,2
   987                           	endm
   988                           skipc	macro
   989                           	btfss	3,0
   990                           	endm
   991                           skipz	macro
   992                           	btfss	3,2
   993                           	endm
   994                           skipnc	macro
   995                           	btfsc	3,0
   996                           	endm
   997                           skipnz	macro
   998                           	btfsc	3,2
   999                           	endm
  1000                           indf	equ	0
  1001                           indf0	equ	0
  1002                           indf1	equ	1
  1003                           pc	equ	2
  1004                           pcl	equ	2
  1005                           status	equ	3
  1006                           fsr0l	equ	4
  1007                           fsr0h	equ	5
  1008                           fsr1l	equ	6
  1009                           fsr1h	equ	7
  1010                           bsr	equ	8
  1011                           wreg	equ	9
  1012                           intcon	equ	11
  1013                           c	equ	1
  1014                           z	equ	0
  1015                           pclath	equ	10
  1016                           # 46 "/opt/microchip/xc8/v1.12/include/pic16f1825.h"
  1017                           INDF0 equ 00h ;# 
  1018                           # 65 "/opt/microchip/xc8/v1.12/include/pic16f1825.h"
  1019                           INDF1 equ 01h ;# 
  1020                           # 84 "/opt/microchip/xc8/v1.12/include/pic16f1825.h"
  1021                           PCL equ 02h ;# 
  1022                           # 103 "/opt/microchip/xc8/v1.12/include/pic16f1825.h"
  1023                           STATUS equ 03h ;# 
  1024                           # 166 "/opt/microchip/xc8/v1.12/include/pic16f1825.h"
  1025                           FSR0L equ 04h ;# 
  1026                           # 185 "/opt/microchip/xc8/v1.12/include/pic16f1825.h"
  1027                           FSR0H equ 05h ;# 
  1028                           # 207 "/opt/microchip/xc8/v1.12/include/pic16f1825.h"
  1029                           FSR1L equ 06h ;# 
  1030                           # 226 "/opt/microchip/xc8/v1.12/include/pic16f1825.h"
  1031                           FSR1H equ 07h ;# 
  1032                           # 245 "/opt/microchip/xc8/v1.12/include/pic16f1825.h"
  1033                           BSR equ 08h ;# 
  1034                           # 296 "/opt/microchip/xc8/v1.12/include/pic16f1825.h"
  1035                           WREG equ 09h ;# 
  1036                           # 315 "/opt/microchip/xc8/v1.12/include/pic16f1825.h"
  1037                           PCLATH equ 0Ah ;# 
  1038                           # 334 "/opt/microchip/xc8/v1.12/include/pic16f1825.h"
  1039                           INTCON equ 0Bh ;# 
  1040                           # 411 "/opt/microchip/xc8/v1.12/include/pic16f1825.h"
  1041                           PORTA equ 0Ch ;# 
  1042                           # 460 "/opt/microchip/xc8/v1.12/include/pic16f1825.h"
  1043                           PORTC equ 0Eh ;# 
  1044                           # 509 "/opt/microchip/xc8/v1.12/include/pic16f1825.h"
  1045                           PIR1 equ 011h ;# 
  1046                           # 570 "/opt/microchip/xc8/v1.12/include/pic16f1825.h"
  1047                           PIR2 equ 012h ;# 
  1048                           # 620 "/opt/microchip/xc8/v1.12/include/pic16f1825.h"
  1049                           PIR3 equ 013h ;# 
  1050                           # 659 "/opt/microchip/xc8/v1.12/include/pic16f1825.h"
  1051                           TMR0 equ 015h ;# 
  1052                           # 678 "/opt/microchip/xc8/v1.12/include/pic16f1825.h"
  1053                           TMR1 equ 016h ;# 
  1054                           # 684 "/opt/microchip/xc8/v1.12/include/pic16f1825.h"
  1055                           TMR1L equ 016h ;# 
  1056                           # 703 "/opt/microchip/xc8/v1.12/include/pic16f1825.h"
  1057                           TMR1H equ 017h ;# 
  1058                           # 722 "/opt/microchip/xc8/v1.12/include/pic16f1825.h"
  1059                           T1CON equ 018h ;# 
  1060                           # 793 "/opt/microchip/xc8/v1.12/include/pic16f1825.h"
  1061                           T1GCON equ 019h ;# 
  1062                           # 862 "/opt/microchip/xc8/v1.12/include/pic16f1825.h"
  1063                           TMR2 equ 01Ah ;# 
  1064                           # 881 "/opt/microchip/xc8/v1.12/include/pic16f1825.h"
  1065                           PR2 equ 01Bh ;# 
  1066                           # 900 "/opt/microchip/xc8/v1.12/include/pic16f1825.h"
  1067                           T2CON equ 01Ch ;# 
  1068                           # 970 "/opt/microchip/xc8/v1.12/include/pic16f1825.h"
  1069                           CPSCON0 equ 01Eh ;# 
  1070                           # 1029 "/opt/microchip/xc8/v1.12/include/pic16f1825.h"
  1071                           CPSCON1 equ 01Fh ;# 
  1072                           # 1074 "/opt/microchip/xc8/v1.12/include/pic16f1825.h"
  1073                           TRISA equ 08Ch ;# 
  1074                           # 1123 "/opt/microchip/xc8/v1.12/include/pic16f1825.h"
  1075                           TRISC equ 08Eh ;# 
  1076                           # 1172 "/opt/microchip/xc8/v1.12/include/pic16f1825.h"
  1077                           PIE1 equ 091h ;# 
  1078                           # 1233 "/opt/microchip/xc8/v1.12/include/pic16f1825.h"
  1079                           PIE2 equ 092h ;# 
  1080                           # 1283 "/opt/microchip/xc8/v1.12/include/pic16f1825.h"
  1081                           PIE3 equ 093h ;# 
  1082                           # 1322 "/opt/microchip/xc8/v1.12/include/pic16f1825.h"
  1083                           OPTION_REG equ 095h ;# 
  1084                           # 1404 "/opt/microchip/xc8/v1.12/include/pic16f1825.h"
  1085                           PCON equ 096h ;# 
  1086                           # 1454 "/opt/microchip/xc8/v1.12/include/pic16f1825.h"
  1087                           WDTCON equ 097h ;# 
  1088                           # 1512 "/opt/microchip/xc8/v1.12/include/pic16f1825.h"
  1089                           OSCTUNE equ 098h ;# 
  1090                           # 1569 "/opt/microchip/xc8/v1.12/include/pic16f1825.h"
  1091                           OSCCON equ 099h ;# 
  1092                           # 1640 "/opt/microchip/xc8/v1.12/include/pic16f1825.h"
  1093                           OSCSTAT equ 09Ah ;# 
  1094                           # 1701 "/opt/microchip/xc8/v1.12/include/pic16f1825.h"
  1095                           ADRES equ 09Bh ;# 
  1096                           # 1707 "/opt/microchip/xc8/v1.12/include/pic16f1825.h"
  1097                           ADRESL equ 09Bh ;# 
  1098                           # 1726 "/opt/microchip/xc8/v1.12/include/pic16f1825.h"
  1099                           ADRESH equ 09Ch ;# 
  1100                           # 1745 "/opt/microchip/xc8/v1.12/include/pic16f1825.h"
  1101                           ADCON0 equ 09Dh ;# 
  1102                           # 1824 "/opt/microchip/xc8/v1.12/include/pic16f1825.h"
  1103                           ADCON1 equ 09Eh ;# 
  1104                           # 1895 "/opt/microchip/xc8/v1.12/include/pic16f1825.h"
  1105                           LATA equ 010Ch ;# 
  1106                           # 1939 "/opt/microchip/xc8/v1.12/include/pic16f1825.h"
  1107                           LATC equ 010Eh ;# 
  1108                           # 1988 "/opt/microchip/xc8/v1.12/include/pic16f1825.h"
  1109                           CM1CON0 equ 0111h ;# 
  1110                           # 2044 "/opt/microchip/xc8/v1.12/include/pic16f1825.h"
  1111                           CM1CON1 equ 0112h ;# 
  1112                           # 2109 "/opt/microchip/xc8/v1.12/include/pic16f1825.h"
  1113                           CM2CON0 equ 0113h ;# 
  1114                           # 2165 "/opt/microchip/xc8/v1.12/include/pic16f1825.h"
  1115                           CM2CON1 equ 0114h ;# 
  1116                           # 2230 "/opt/microchip/xc8/v1.12/include/pic16f1825.h"
  1117                           CMOUT equ 0115h ;# 
  1118                           # 2255 "/opt/microchip/xc8/v1.12/include/pic16f1825.h"
  1119                           BORCON equ 0116h ;# 
  1120                           # 2281 "/opt/microchip/xc8/v1.12/include/pic16f1825.h"
  1121                           FVRCON equ 0117h ;# 
  1122                           # 2356 "/opt/microchip/xc8/v1.12/include/pic16f1825.h"
  1123                           DACCON0 equ 0118h ;# 
  1124                           # 2416 "/opt/microchip/xc8/v1.12/include/pic16f1825.h"
  1125                           DACCON1 equ 0119h ;# 
  1126                           # 2467 "/opt/microchip/xc8/v1.12/include/pic16f1825.h"
  1127                           SRCON0 equ 011Ah ;# 
  1128                           # 2537 "/opt/microchip/xc8/v1.12/include/pic16f1825.h"
  1129                           SRCON1 equ 011Bh ;# 
  1130                           # 2588 "/opt/microchip/xc8/v1.12/include/pic16f1825.h"
  1131                           APFCON0 equ 011Dh ;# 
  1132                           # 2633 "/opt/microchip/xc8/v1.12/include/pic16f1825.h"
  1133                           APFCON1 equ 011Eh ;# 
  1134                           # 2670 "/opt/microchip/xc8/v1.12/include/pic16f1825.h"
  1135                           ANSELA equ 018Ch ;# 
  1136                           # 2716 "/opt/microchip/xc8/v1.12/include/pic16f1825.h"
  1137                           ANSELC equ 018Eh ;# 
  1138                           # 2761 "/opt/microchip/xc8/v1.12/include/pic16f1825.h"
  1139                           EEADR equ 0191h ;# 
  1140                           # 2767 "/opt/microchip/xc8/v1.12/include/pic16f1825.h"
  1141                           EEADRL equ 0191h ;# 
  1142                           # 2786 "/opt/microchip/xc8/v1.12/include/pic16f1825.h"
  1143                           EEADRH equ 0192h ;# 
  1144                           # 2805 "/opt/microchip/xc8/v1.12/include/pic16f1825.h"
  1145                           EEDAT equ 0193h ;# 
  1146                           # 2811 "/opt/microchip/xc8/v1.12/include/pic16f1825.h"
  1147                           EEDATL equ 0193h ;# 
  1148                           # 2816 "/opt/microchip/xc8/v1.12/include/pic16f1825.h"
  1149                           EEDATA equ 0193h ;# 
  1150                           # 2848 "/opt/microchip/xc8/v1.12/include/pic16f1825.h"
  1151                           EEDATH equ 0194h ;# 
  1152                           # 2867 "/opt/microchip/xc8/v1.12/include/pic16f1825.h"
  1153                           EECON1 equ 0195h ;# 
  1154                           # 2928 "/opt/microchip/xc8/v1.12/include/pic16f1825.h"
  1155                           EECON2 equ 0196h ;# 
  1156                           # 2947 "/opt/microchip/xc8/v1.12/include/pic16f1825.h"
  1157                           RCREG equ 0199h ;# 
  1158                           # 2966 "/opt/microchip/xc8/v1.12/include/pic16f1825.h"
  1159                           TXREG equ 019Ah ;# 
  1160                           # 2985 "/opt/microchip/xc8/v1.12/include/pic16f1825.h"
  1161                           SPBRG equ 019Bh ;# 
  1162                           # 2991 "/opt/microchip/xc8/v1.12/include/pic16f1825.h"
  1163                           SPBRGL equ 019Bh ;# 
  1164                           # 3010 "/opt/microchip/xc8/v1.12/include/pic16f1825.h"
  1165                           SPBRGH equ 019Ch ;# 
  1166                           # 3029 "/opt/microchip/xc8/v1.12/include/pic16f1825.h"
  1167                           RCSTA equ 019Dh ;# 
  1168                           # 3090 "/opt/microchip/xc8/v1.12/include/pic16f1825.h"
  1169                           TXSTA equ 019Eh ;# 
  1170                           # 3151 "/opt/microchip/xc8/v1.12/include/pic16f1825.h"
  1171                           BAUDCON equ 019Fh ;# 
  1172                           # 3202 "/opt/microchip/xc8/v1.12/include/pic16f1825.h"
  1173                           WPUA equ 020Ch ;# 
  1174                           # 3259 "/opt/microchip/xc8/v1.12/include/pic16f1825.h"
  1175                           WPUC equ 020Eh ;# 
  1176                           # 3308 "/opt/microchip/xc8/v1.12/include/pic16f1825.h"
  1177                           SSP1BUF equ 0211h ;# 
  1178                           # 3313 "/opt/microchip/xc8/v1.12/include/pic16f1825.h"
  1179                           SSPBUF equ 0211h ;# 
  1180                           # 3345 "/opt/microchip/xc8/v1.12/include/pic16f1825.h"
  1181                           SSP1ADD equ 0212h ;# 
  1182                           # 3350 "/opt/microchip/xc8/v1.12/include/pic16f1825.h"
  1183                           SSPADD equ 0212h ;# 
  1184                           # 3382 "/opt/microchip/xc8/v1.12/include/pic16f1825.h"
  1185                           SSP1MSK equ 0213h ;# 
  1186                           # 3387 "/opt/microchip/xc8/v1.12/include/pic16f1825.h"
  1187                           SSPMSK equ 0213h ;# 
  1188                           # 3419 "/opt/microchip/xc8/v1.12/include/pic16f1825.h"
  1189                           SSP1STAT equ 0214h ;# 
  1190                           # 3424 "/opt/microchip/xc8/v1.12/include/pic16f1825.h"
  1191                           SSPSTAT equ 0214h ;# 
  1192                           # 3540 "/opt/microchip/xc8/v1.12/include/pic16f1825.h"
  1193                           SSP1CON1 equ 0215h ;# 
  1194                           # 3545 "/opt/microchip/xc8/v1.12/include/pic16f1825.h"
  1195                           SSPCON1 equ 0215h ;# 
  1196                           # 3549 "/opt/microchip/xc8/v1.12/include/pic16f1825.h"
  1197                           SSPCON equ 0215h ;# 
  1198                           # 3743 "/opt/microchip/xc8/v1.12/include/pic16f1825.h"
  1199                           SSP1CON2 equ 0216h ;# 
  1200                           # 3748 "/opt/microchip/xc8/v1.12/include/pic16f1825.h"
  1201                           SSPCON2 equ 0216h ;# 
  1202                           # 3864 "/opt/microchip/xc8/v1.12/include/pic16f1825.h"
  1203                           SSP1CON3 equ 0217h ;# 
  1204                           # 3869 "/opt/microchip/xc8/v1.12/include/pic16f1825.h"
  1205                           SSPCON3 equ 0217h ;# 
  1206                           # 3985 "/opt/microchip/xc8/v1.12/include/pic16f1825.h"
  1207                           CCPR1L equ 0291h ;# 
  1208                           # 4004 "/opt/microchip/xc8/v1.12/include/pic16f1825.h"
  1209                           CCPR1H equ 0292h ;# 
  1210                           # 4023 "/opt/microchip/xc8/v1.12/include/pic16f1825.h"
  1211                           CCP1CON equ 0293h ;# 
  1212                           # 4104 "/opt/microchip/xc8/v1.12/include/pic16f1825.h"
  1213                           PWM1CON equ 0294h ;# 
  1214                           # 4173 "/opt/microchip/xc8/v1.12/include/pic16f1825.h"
  1215                           CCP1AS equ 0295h ;# 
  1216                           # 4178 "/opt/microchip/xc8/v1.12/include/pic16f1825.h"
  1217                           ECCP1AS equ 0295h ;# 
  1218                           # 4334 "/opt/microchip/xc8/v1.12/include/pic16f1825.h"
  1219                           PSTR1CON equ 0296h ;# 
  1220                           # 4377 "/opt/microchip/xc8/v1.12/include/pic16f1825.h"
  1221                           CCPR2L equ 0298h ;# 
  1222                           # 4396 "/opt/microchip/xc8/v1.12/include/pic16f1825.h"
  1223                           CCPR2H equ 0299h ;# 
  1224                           # 4415 "/opt/microchip/xc8/v1.12/include/pic16f1825.h"
  1225                           CCP2CON equ 029Ah ;# 
  1226                           # 4496 "/opt/microchip/xc8/v1.12/include/pic16f1825.h"
  1227                           PWM2CON equ 029Bh ;# 
  1228                           # 4565 "/opt/microchip/xc8/v1.12/include/pic16f1825.h"
  1229                           CCP2AS equ 029Ch ;# 
  1230                           # 4646 "/opt/microchip/xc8/v1.12/include/pic16f1825.h"
  1231                           PSTR2CON equ 029Dh ;# 
  1232                           # 4689 "/opt/microchip/xc8/v1.12/include/pic16f1825.h"
  1233                           CCPTMRS equ 029Eh ;# 
  1234                           # 4776 "/opt/microchip/xc8/v1.12/include/pic16f1825.h"
  1235                           CCPR3L equ 0311h ;# 
  1236                           # 4795 "/opt/microchip/xc8/v1.12/include/pic16f1825.h"
  1237                           CCPR3H equ 0312h ;# 
  1238                           # 4814 "/opt/microchip/xc8/v1.12/include/pic16f1825.h"
  1239                           CCP3CON equ 0313h ;# 
  1240                           # 4877 "/opt/microchip/xc8/v1.12/include/pic16f1825.h"
  1241                           CCPR4L equ 0318h ;# 
  1242                           # 4896 "/opt/microchip/xc8/v1.12/include/pic16f1825.h"
  1243                           CCPR4H equ 0319h ;# 
  1244                           # 4915 "/opt/microchip/xc8/v1.12/include/pic16f1825.h"
  1245                           CCP4CON equ 031Ah ;# 
  1246                           # 4978 "/opt/microchip/xc8/v1.12/include/pic16f1825.h"
  1247                           INLVLA equ 038Ch ;# 
  1248                           # 5035 "/opt/microchip/xc8/v1.12/include/pic16f1825.h"
  1249                           INLVLC equ 038Eh ;# 
  1250                           # 5092 "/opt/microchip/xc8/v1.12/include/pic16f1825.h"
  1251                           IOCAP equ 0391h ;# 
  1252                           # 5149 "/opt/microchip/xc8/v1.12/include/pic16f1825.h"
  1253                           IOCAN equ 0392h ;# 
  1254                           # 5206 "/opt/microchip/xc8/v1.12/include/pic16f1825.h"
  1255                           IOCAF equ 0393h ;# 
  1256                           # 5263 "/opt/microchip/xc8/v1.12/include/pic16f1825.h"
  1257                           CLKRCON equ 039Ah ;# 
  1258                           # 5338 "/opt/microchip/xc8/v1.12/include/pic16f1825.h"
  1259                           MDCON equ 039Ch ;# 
  1260                           # 5388 "/opt/microchip/xc8/v1.12/include/pic16f1825.h"
  1261                           MDSRC equ 039Dh ;# 
  1262                           # 5440 "/opt/microchip/xc8/v1.12/include/pic16f1825.h"
  1263                           MDCARL equ 039Eh ;# 
  1264                           # 5504 "/opt/microchip/xc8/v1.12/include/pic16f1825.h"
  1265                           MDCARH equ 039Fh ;# 
  1266                           # 5568 "/opt/microchip/xc8/v1.12/include/pic16f1825.h"
  1267                           TMR4 equ 0415h ;# 
  1268                           # 5587 "/opt/microchip/xc8/v1.12/include/pic16f1825.h"
  1269                           PR4 equ 0416h ;# 
  1270                           # 5606 "/opt/microchip/xc8/v1.12/include/pic16f1825.h"
  1271                           T4CON equ 0417h ;# 
  1272                           # 5676 "/opt/microchip/xc8/v1.12/include/pic16f1825.h"
  1273                           TMR6 equ 041Ch ;# 
  1274                           # 5695 "/opt/microchip/xc8/v1.12/include/pic16f1825.h"
  1275                           PR6 equ 041Dh ;# 
  1276                           # 5714 "/opt/microchip/xc8/v1.12/include/pic16f1825.h"
  1277                           T6CON equ 041Eh ;# 
  1278                           # 5784 "/opt/microchip/xc8/v1.12/include/pic16f1825.h"
  1279                           STATUS_SHAD equ 0FE4h ;# 
  1280                           # 5815 "/opt/microchip/xc8/v1.12/include/pic16f1825.h"
  1281                           WREG_SHAD equ 0FE5h ;# 
  1282                           # 5834 "/opt/microchip/xc8/v1.12/include/pic16f1825.h"
  1283                           BSR_SHAD equ 0FE6h ;# 
  1284                           # 5853 "/opt/microchip/xc8/v1.12/include/pic16f1825.h"
  1285                           PCLATH_SHAD equ 0FE7h ;# 
  1286                           # 5872 "/opt/microchip/xc8/v1.12/include/pic16f1825.h"
  1287                           FSR0L_SHAD equ 0FE8h ;# 
  1288                           # 5891 "/opt/microchip/xc8/v1.12/include/pic16f1825.h"
  1289                           FSR0H_SHAD equ 0FE9h ;# 
  1290                           # 5910 "/opt/microchip/xc8/v1.12/include/pic16f1825.h"
  1291                           FSR1L_SHAD equ 0FEAh ;# 
  1292                           # 5929 "/opt/microchip/xc8/v1.12/include/pic16f1825.h"
  1293                           FSR1H_SHAD equ 0FEBh ;# 
  1294                           # 5948 "/opt/microchip/xc8/v1.12/include/pic16f1825.h"
  1295                           STKPTR equ 0FEDh ;# 
  1296                           # 5967 "/opt/microchip/xc8/v1.12/include/pic16f1825.h"
  1297                           TOSL equ 0FEEh ;# 
  1298                           # 5986 "/opt/microchip/xc8/v1.12/include/pic16f1825.h"
  1299                           TOSH equ 0FEFh ;# 
  1300                           # 46 "/opt/microchip/xc8/v1.12/include/pic16f1825.h"
  1301                           INDF0 equ 00h ;# 
  1302                           # 65 "/opt/microchip/xc8/v1.12/include/pic16f1825.h"
  1303                           INDF1 equ 01h ;# 
  1304                           # 84 "/opt/microchip/xc8/v1.12/include/pic16f1825.h"
  1305                           PCL equ 02h ;# 
  1306                           # 103 "/opt/microchip/xc8/v1.12/include/pic16f1825.h"
  1307                           STATUS equ 03h ;# 
  1308                           # 166 "/opt/microchip/xc8/v1.12/include/pic16f1825.h"
  1309                           FSR0L equ 04h ;# 
  1310                           # 185 "/opt/microchip/xc8/v1.12/include/pic16f1825.h"
  1311                           FSR0H equ 05h ;# 
  1312                           # 207 "/opt/microchip/xc8/v1.12/include/pic16f1825.h"
  1313                           FSR1L equ 06h ;# 
  1314                           # 226 "/opt/microchip/xc8/v1.12/include/pic16f1825.h"
  1315                           FSR1H equ 07h ;# 
  1316                           # 245 "/opt/microchip/xc8/v1.12/include/pic16f1825.h"
  1317                           BSR equ 08h ;# 
  1318                           # 296 "/opt/microchip/xc8/v1.12/include/pic16f1825.h"
  1319                           WREG equ 09h ;# 
  1320                           # 315 "/opt/microchip/xc8/v1.12/include/pic16f1825.h"
  1321                           PCLATH equ 0Ah ;# 
  1322                           # 334 "/opt/microchip/xc8/v1.12/include/pic16f1825.h"
  1323                           INTCON equ 0Bh ;# 
  1324                           # 411 "/opt/microchip/xc8/v1.12/include/pic16f1825.h"
  1325                           PORTA equ 0Ch ;# 
  1326                           # 460 "/opt/microchip/xc8/v1.12/include/pic16f1825.h"
  1327                           PORTC equ 0Eh ;# 
  1328                           # 509 "/opt/microchip/xc8/v1.12/include/pic16f1825.h"
  1329                           PIR1 equ 011h ;# 
  1330                           # 570 "/opt/microchip/xc8/v1.12/include/pic16f1825.h"
  1331                           PIR2 equ 012h ;# 
  1332                           # 620 "/opt/microchip/xc8/v1.12/include/pic16f1825.h"
  1333                           PIR3 equ 013h ;# 
  1334                           # 659 "/opt/microchip/xc8/v1.12/include/pic16f1825.h"
  1335                           TMR0 equ 015h ;# 
  1336                           # 678 "/opt/microchip/xc8/v1.12/include/pic16f1825.h"
  1337                           TMR1 equ 016h ;# 
  1338                           # 684 "/opt/microchip/xc8/v1.12/include/pic16f1825.h"
  1339                           TMR1L equ 016h ;# 
  1340                           # 703 "/opt/microchip/xc8/v1.12/include/pic16f1825.h"
  1341                           TMR1H equ 017h ;# 
  1342                           # 722 "/opt/microchip/xc8/v1.12/include/pic16f1825.h"
  1343                           T1CON equ 018h ;# 
  1344                           # 793 "/opt/microchip/xc8/v1.12/include/pic16f1825.h"
  1345                           T1GCON equ 019h ;# 
  1346                           # 862 "/opt/microchip/xc8/v1.12/include/pic16f1825.h"
  1347                           TMR2 equ 01Ah ;# 
  1348                           # 881 "/opt/microchip/xc8/v1.12/include/pic16f1825.h"
  1349                           PR2 equ 01Bh ;# 
  1350                           # 900 "/opt/microchip/xc8/v1.12/include/pic16f1825.h"
  1351                           T2CON equ 01Ch ;# 
  1352                           # 970 "/opt/microchip/xc8/v1.12/include/pic16f1825.h"
  1353                           CPSCON0 equ 01Eh ;# 
  1354                           # 1029 "/opt/microchip/xc8/v1.12/include/pic16f1825.h"
  1355                           CPSCON1 equ 01Fh ;# 
  1356                           # 1074 "/opt/microchip/xc8/v1.12/include/pic16f1825.h"
  1357                           TRISA equ 08Ch ;# 
  1358                           # 1123 "/opt/microchip/xc8/v1.12/include/pic16f1825.h"
  1359                           TRISC equ 08Eh ;# 
  1360                           # 1172 "/opt/microchip/xc8/v1.12/include/pic16f1825.h"
  1361                           PIE1 equ 091h ;# 
  1362                           # 1233 "/opt/microchip/xc8/v1.12/include/pic16f1825.h"
  1363                           PIE2 equ 092h ;# 
  1364                           # 1283 "/opt/microchip/xc8/v1.12/include/pic16f1825.h"
  1365                           PIE3 equ 093h ;# 
  1366                           # 1322 "/opt/microchip/xc8/v1.12/include/pic16f1825.h"
  1367                           OPTION_REG equ 095h ;# 
  1368                           # 1404 "/opt/microchip/xc8/v1.12/include/pic16f1825.h"
  1369                           PCON equ 096h ;# 
  1370                           # 1454 "/opt/microchip/xc8/v1.12/include/pic16f1825.h"
  1371                           WDTCON equ 097h ;# 
  1372                           # 1512 "/opt/microchip/xc8/v1.12/include/pic16f1825.h"
  1373                           OSCTUNE equ 098h ;# 
  1374                           # 1569 "/opt/microchip/xc8/v1.12/include/pic16f1825.h"
  1375                           OSCCON equ 099h ;# 
  1376                           # 1640 "/opt/microchip/xc8/v1.12/include/pic16f1825.h"
  1377                           OSCSTAT equ 09Ah ;# 
  1378                           # 1701 "/opt/microchip/xc8/v1.12/include/pic16f1825.h"
  1379                           ADRES equ 09Bh ;# 
  1380                           # 1707 "/opt/microchip/xc8/v1.12/include/pic16f1825.h"
  1381                           ADRESL equ 09Bh ;# 
  1382                           # 1726 "/opt/microchip/xc8/v1.12/include/pic16f1825.h"
  1383                           ADRESH equ 09Ch ;# 
  1384                           # 1745 "/opt/microchip/xc8/v1.12/include/pic16f1825.h"
  1385                           ADCON0 equ 09Dh ;# 
  1386                           # 1824 "/opt/microchip/xc8/v1.12/include/pic16f1825.h"
  1387                           ADCON1 equ 09Eh ;# 
  1388                           # 1895 "/opt/microchip/xc8/v1.12/include/pic16f1825.h"
  1389                           LATA equ 010Ch ;# 
  1390                           # 1939 "/opt/microchip/xc8/v1.12/include/pic16f1825.h"
  1391                           LATC equ 010Eh ;# 
  1392                           # 1988 "/opt/microchip/xc8/v1.12/include/pic16f1825.h"
  1393                           CM1CON0 equ 0111h ;# 
  1394  0377                     __pmaintext:	;psect for function _main
  1395                           opt subtitle "HI-TECH Software Omniscient Code Generator (Lite mode) build 49521"
  1396                           
  1397                           opt pagewidth 120
  1398                           
  1399  005A                     	__size_of_main	equ	__end_of_main-_main
  1400                           opt subtitle "HI-TECH Software Omniscient Code Generator (Lite mode) build 49521"
  1401  0377                     _main:	
  1402                           opt subtitle "HI-TECH Software Omniscient Code Generator (Lite mode) build 49521"
  1403                           
  1404                           opt pagewidth 120
  1405                           
  1406  0377                     l1709:	
  1407                           opt subtitle "HI-TECH Software Omniscient Code Generator (Lite mode) build 49521"
  1408  0377  3070               	movlw	(070h)
  1409  0378  0021               	movlb 1	; select bank1
  1410  0379  0099               	movwf	(153)^080h	;volatile
  1411                           opt subtitle "HI-TECH Software Omniscient Code Generator (Lite mode) build 49521"
  1412                           
  1413  037A  3007               	movlw	(07h)
  1414  037B  008C               	movwf	(140)^080h	;volatile
  1415                           opt subtitle "HI-TECH Software Omniscient Code Generator (Lite mode) build 49521"
  1416                           
  1417  037C                     l1711:	
  1418                           opt subtitle "HI-TECH Software Omniscient Code Generator (Lite mode) build 49521"
  1419  037C  0020               	movlb 0	; select bank0
  1420  037D  018C               	clrf	(12)	;volatile
  1421                           opt subtitle "HI-TECH Software Omniscient Code Generator (Lite mode) build 49521"
  1422                           
  1423  037E                     l1713:	
  1424                           opt subtitle "HI-TECH Software Omniscient Code Generator (Lite mode) build 49521"
  1425  037E  3020               	movlw	(020h)
  1426  037F  0021               	movlb 1	; select bank1
  1427  0380  008E               	movwf	(142)^080h	;volatile
  1428                           opt subtitle "HI-TECH Software Omniscient Code Generator (Lite mode) build 49521"
  1429                           
  1430  0381  0020               	movlb 0	; select bank0
  1431  0382  018E               	clrf	(14)	;volatile
  1432                           opt subtitle "HI-TECH Software Omniscient Code Generator (Lite mode) build 49521"
  1433                           
  1434  0383                     l1715:	
  1435                           opt subtitle "HI-TECH Software Omniscient Code Generator (Lite mode) build 49521"
  1436  0383  3033               	movlw	(033h)
  1437  0384  0023               	movlb 3	; select bank3
  1438  0385  009B               	movwf	(411)^0180h	;volatile
  1439                           opt subtitle "HI-TECH Software Omniscient Code Generator (Lite mode) build 49521"
  1440                           
  1441  0386                     l1717:	
  1442                           opt subtitle "HI-TECH Software Omniscient Code Generator (Lite mode) build 49521"
  1443  0386  3010               	movlw	(010h)
  1444  0387  009D               	movwf	(413)^0180h	;volatile
  1445                           opt subtitle "HI-TECH Software Omniscient Code Generator (Lite mode) build 49521"
  1446                           
  1447  0388                     l1719:	
  1448                           opt subtitle "HI-TECH Software Omniscient Code Generator (Lite mode) build 49521"
  1449  0388  3020               	movlw	(020h)
  1450  0389  009E               	movwf	(414)^0180h	;volatile
  1451                           opt subtitle "HI-TECH Software Omniscient Code Generator (Lite mode) build 49521"
  1452                           
  1453  038A                     l1721:	
  1454                           opt subtitle "HI-TECH Software Omniscient Code Generator (Lite mode) build 49521"
  1455  038A  179D               	bsf	(413)^0180h,7	;volatile
  1456                           opt subtitle "HI-TECH Software Omniscient Code Generator (Lite mode) build 49521"
  1457                           
  1458  038B                     l1723:	
  1459                           opt subtitle "HI-TECH Software Omniscient Code Generator (Lite mode) build 49521"
  1460  038B  30FF               	movlw	(0FFh)
  1461  038C  3184  24AE  3183   	fcall	_eeprom_read
  1462  038F  0020               	movlb 0	; select bank0
  1463  0390  00BA               	movwf	(??_main+0)+0
  1464  0391  083A               	movf	(??_main+0)+0,w
  1465  0392  00C2               	movwf	(_myaddress)
  1466                           opt subtitle "HI-TECH Software Omniscient Code Generator (Lite mode) build 49521"
  1467                           
  1468  0393                     l1725:	
  1469                           opt subtitle "HI-TECH Software Omniscient Code Generator (Lite mode) build 49521"
  1470  0393  0842               	movf	(_myaddress),w
  1471  0394  3AFF               	xorlw	0FFh&0ffh
  1472  0395  1D03               	skipz
  1473  0396  2B98               	goto	u1221
  1474  0397  2B99               	goto	u1220
  1475  0398                     u1221:
  1476  0398  2B9D               	goto	l168
  1477  0399                     u1220:
  1478                           opt subtitle "HI-TECH Software Omniscient Code Generator (Lite mode) build 49521"
  1479                           
  1480  0399                     l1727:	
  1481                           opt subtitle "HI-TECH Software Omniscient Code Generator (Lite mode) build 49521"
  1482  0399  301F               	movlw	(01Fh)
  1483  039A  00BA               	movwf	(??_main+0)+0
  1484  039B  083A               	movf	(??_main+0)+0,w
  1485  039C  00C2               	movwf	(_myaddress)
  1486                           opt subtitle "HI-TECH Software Omniscient Code Generator (Lite mode) build 49521"
  1487  039D                     l168:	
  1488                           opt subtitle "HI-TECH Software Omniscient Code Generator (Lite mode) build 49521"
  1489                           
  1490                           opt pagewidth 120
  1491  039D  3005               movlw  5
  1492  039E  00BC               movwf	((??_main+0)+0+2),f
  1493  039F  300F               movlw	15
  1494  03A0  00BB               movwf	((??_main+0)+0+1),f
  1495  03A1  30F4               	movlw	244
  1496  03A2  00BA               movwf	((??_main+0)+0),f
  1497  03A3                     u1267:
  1498  03A3  0BBA               	decfsz	((??_main+0)+0),f
  1499  03A4  2BA3               	goto	u1267
  1500  03A5  0BBB               	decfsz	((??_main+0)+0+1),f
  1501  03A6  2BA3               	goto	u1267
  1502  03A7  0BBC               	decfsz	((??_main+0)+0+2),f
  1503  03A8  2BA3               	goto	u1267
  1504                           opt subtitle "HI-TECH Software Omniscient Code Generator (Lite mode) build 49521"
  1505                           
  1506                           opt pagewidth 120
  1507                           
  1508  03A9                     l1729:	
  1509                           opt subtitle "HI-TECH Software Omniscient Code Generator (Lite mode) build 49521"
  1510  03A9  0020               	movlb 0	; select bank0
  1511  03AA  190C               	btfsc	(12),2	;volatile
  1512  03AB  2BAD               	goto	u1231
  1513  03AC  2BAE               	goto	u1230
  1514  03AD                     u1231:
  1515  03AD  2BB2               	goto	l1733
  1516  03AE                     u1230:
  1517                           opt subtitle "HI-TECH Software Omniscient Code Generator (Lite mode) build 49521"
  1518                           
  1519  03AE                     l1731:	
  1520                           opt subtitle "HI-TECH Software Omniscient Code Generator (Lite mode) build 49521"
  1521  03AE  3181  21D0  3183   	fcall	_do_bootloader
  1522  03B1  2BB2               	goto	l1733
  1523                           opt subtitle "HI-TECH Software Omniscient Code Generator (Lite mode) build 49521"
  1524                           
  1525  03B2                     l169:	
  1526                           opt subtitle "HI-TECH Software Omniscient Code Generator (Lite mode) build 49521"
  1527                           
  1528  03B2                     l1733:	
  1529                           opt subtitle "HI-TECH Software Omniscient Code Generator (Lite mode) build 49521"
  1530                           
  1531  03B2  30FE               	movlw	(0FEh)
  1532  03B3  3184  24AE  3183   	fcall	_eeprom_read
  1533  03B6  3A55               	xorlw	055h&0ffh
  1534  03B7  1D03               	skipz
  1535  03B8  2BBA               	goto	u1241
  1536  03B9  2BBB               	goto	u1240
  1537  03BA                     u1241:
  1538  03BA  2BBF               	goto	l1737
  1539  03BB                     u1240:
  1540                           opt subtitle "HI-TECH Software Omniscient Code Generator (Lite mode) build 49521"
  1541                           
  1542  03BB                     l1735:	
  1543                           opt subtitle "HI-TECH Software Omniscient Code Generator (Lite mode) build 49521"
  1544  03BB  3181  21D0  3183   	fcall	_do_bootloader
  1545  03BE  2BBF               	goto	l1737
  1546                           opt subtitle "HI-TECH Software Omniscient Code Generator (Lite mode) build 49521"
  1547                           
  1548  03BF                     l170:	
  1549                           opt subtitle "HI-TECH Software Omniscient Code Generator (Lite mode) build 49521"
  1550                           
  1551  03BF                     l1737:	
  1552                           opt subtitle "HI-TECH Software Omniscient Code Generator (Lite mode) build 49521"
  1553                           
  1554  03BF  3182  2276  3183   	fcall	_check_appspace
  1555  03C2  3A00               	xorlw	0&0ffh
  1556  03C3  1903               	skipnz
  1557  03C4  2BC6               	goto	u1251
  1558  03C5  2BC7               	goto	u1250
  1559  03C6                     u1251:
  1560  03C6  2BCB               	goto	l1741
  1561  03C7                     u1250:
  1562                           opt subtitle "HI-TECH Software Omniscient Code Generator (Lite mode) build 49521"
  1563                           
  1564  03C7                     l1739:	
  1565                           opt subtitle "HI-TECH Software Omniscient Code Generator (Lite mode) build 49521"
  1566  03C7  3181  21D0  3183   	fcall	_do_bootloader
  1567  03CA  2BCB               	goto	l1741
  1568                           opt subtitle "HI-TECH Software Omniscient Code Generator (Lite mode) build 49521"
  1569                           
  1570  03CB                     l171:	
  1571                           opt subtitle "HI-TECH Software Omniscient Code Generator (Lite mode) build 49521"
  1572                           
  1573  03CB                     l1741:	
  1574                           opt subtitle "HI-TECH Software Omniscient Code Generator (Lite mode) build 49521"
  1575                           
  1576  03CB  3185  250D  3183   	fcall	_start_app
  1577                           opt subtitle "HI-TECH Software Omniscient Code Generator (Lite mode) build 49521"
  1578                           
  1579                           opt pagewidth 120
  1580  03CE                     l172:	
  1581  03CE  2BCE               	goto	l172
  1582                           opt subtitle "HI-TECH Software Omniscient Code Generator (Lite mode) build 49521"
  1583  03CF                     l173:	
  1584                           opt subtitle "HI-TECH Software Omniscient Code Generator (Lite mode) build 49521"
  1585                           
  1586  03CF                     l174:	
  1587                           opt subtitle "HI-TECH Software Omniscient Code Generator (Lite mode) build 49521"
  1588  03CF  3180  280E         	ljmp	start
  1589                           opt subtitle "HI-TECH Software Omniscient Code Generator (Lite mode) build 49521"
  1590                           
  1591  03D1                     	__end_of_main:
  1592                           opt subtitle "HI-TECH Software Omniscient Code Generator (Lite mode) build 49521"
  1593                           
  1594                           opt pagewidth 120
  1595                           
  1596                           	opt lm
  1597                           
  1598                           	processor	16F1825
  1599                           clrc	macro
  1600                           	bcf	3,0
  1601                           	endm
  1602                           clrz	macro
  1603                           	bcf	3,2
  1604                           	endm
  1605                           setc	macro
  1606                           	bsf	3,0
  1607                           	endm
  1608                           setz	macro
  1609                           	bsf	3,2
  1610                           	endm
  1611                           skipc	macro
  1612                           	btfss	3,0
  1613                           	endm
  1614                           skipz	macro
  1615                           	btfss	3,2
  1616                           	endm
  1617                           skipnc	macro
  1618                           	btfsc	3,0
  1619                           	endm
  1620                           skipnz	macro
  1621                           	btfsc	3,2
  1622                           	endm
  1623                           indf	equ	0
  1624                           indf0	equ	0
  1625                           indf1	equ	1
  1626                           pc	equ	2
  1627                           pcl	equ	2
  1628                           status	equ	3
  1629                           fsr0l	equ	4
  1630                           fsr0h	equ	5
  1631                           fsr1l	equ	6
  1632                           fsr1h	equ	7
  1633                           bsr	equ	8
  1634  01D0                     __ptext532:	;psect for function _do_bootloader
  1635                           opt subtitle "HI-TECH Software Omniscient Code Generator (Lite mode) build 49521"
  1636                           
  1637                           opt pagewidth 120
  1638                           
  1639  00A6                     	__size_of_do_bootloader	equ	__end_of_do_bootloader-_do_bootloader
  1640                           opt subtitle "HI-TECH Software Omniscient Code Generator (Lite mode) build 49521"
  1641  01D0                     _do_bootloader:	
  1642                           opt subtitle "HI-TECH Software Omniscient Code Generator (Lite mode) build 49521"
  1643                           
  1644                           opt pagewidth 120
  1645                           
  1646                           	opt lm
  1647                           
  1648                           	processor	16F1825
  1649  01D0                     l145:	
  1650                           opt subtitle "HI-TECH Software Omniscient Code Generator (Lite mode) build 49521"
  1651                           
  1652  01D0                     l1653:	
  1653                           opt subtitle "HI-TECH Software Omniscient Code Generator (Lite mode) build 49521"
  1654  01D0  3184  24CA  3181   	fcall	_getc
  1655  01D3  0020               	movlb 0	; select bank0
  1656  01D4  00B7               	movwf	(??_do_bootloader+0)+0
  1657  01D5  0837               	movf	(??_do_bootloader+0)+0,w
  1658  01D6  00B9               	movwf	(do_bootloader@c)
  1659                           opt subtitle "HI-TECH Software Omniscient Code Generator (Lite mode) build 49521"
  1660                           
  1661  01D7                     l1655:	
  1662                           opt subtitle "HI-TECH Software Omniscient Code Generator (Lite mode) build 49521"
  1663  01D7  0839               	movf	(do_bootloader@c),w
  1664  01D8  3A02               	xorlw	02h&0ffh
  1665  01D9  1903               	skipnz
  1666  01DA  29DC               	goto	u1161
  1667  01DB  29DD               	goto	u1160
  1668  01DC                     u1161:
  1669  01DC  29DF               	goto	l146
  1670  01DD                     u1160:
  1671  01DD  29D0               	goto	l145
  1672                           opt subtitle "HI-TECH Software Omniscient Code Generator (Lite mode) build 49521"
  1673                           
  1674  01DE                     l1657:	
  1675                           opt subtitle "HI-TECH Software Omniscient Code Generator (Lite mode) build 49521"
  1676  01DE  29D0               	goto	l145
  1677                           opt subtitle "HI-TECH Software Omniscient Code Generator (Lite mode) build 49521"
  1678  01DF                     l146:	
  1679                           opt subtitle "HI-TECH Software Omniscient Code Generator (Lite mode) build 49521"
  1680                           
  1681  01DF  01B8               	clrf	(do_bootloader@i)
  1682  01E0  29E1               	goto	l1659
  1683                           opt subtitle "HI-TECH Software Omniscient Code Generator (Lite mode) build 49521"
  1684  01E1                     l148:	
  1685                           opt subtitle "HI-TECH Software Omniscient Code Generator (Lite mode) build 49521"
  1686                           
  1687  01E1                     l1659:	
  1688                           opt subtitle "HI-TECH Software Omniscient Code Generator (Lite mode) build 49521"
  1689  01E1  3184  24CA  3181   	fcall	_getc
  1690  01E4  0020               	movlb 0	; select bank0
  1691  01E5  00B7               	movwf	(??_do_bootloader+0)+0
  1692  01E6  0837               	movf	(??_do_bootloader+0)+0,w
  1693  01E7  00B9               	movwf	(do_bootloader@c)
  1694                           opt subtitle "HI-TECH Software Omniscient Code Generator (Lite mode) build 49521"
  1695                           
  1696  01E8                     l1661:	
  1697                           opt subtitle "HI-TECH Software Omniscient Code Generator (Lite mode) build 49521"
  1698  01E8  0839               	movf	(do_bootloader@c),w
  1699  01E9  3A03               	xorlw	03h&0ffh
  1700  01EA  1D03               	skipz
  1701  01EB  29ED               	goto	u1171
  1702  01EC  29EE               	goto	u1170
  1703  01ED                     u1171:
  1704  01ED  29F0               	goto	l1665
  1705  01EE                     u1170:
  1706  01EE  2A12               	goto	l1675
  1707                           opt subtitle "HI-TECH Software Omniscient Code Generator (Lite mode) build 49521"
  1708                           
  1709  01EF                     l1663:	
  1710                           opt subtitle "HI-TECH Software Omniscient Code Generator (Lite mode) build 49521"
  1711  01EF  2A12               	goto	l1675
  1712                           opt subtitle "HI-TECH Software Omniscient Code Generator (Lite mode) build 49521"
  1713  01F0                     l149:	
  1714                           opt subtitle "HI-TECH Software Omniscient Code Generator (Lite mode) build 49521"
  1715                           
  1716  01F0                     l1665:	
  1717                           opt subtitle "HI-TECH Software Omniscient Code Generator (Lite mode) build 49521"
  1718  01F0  0839               	movf	(do_bootloader@c),w
  1719  01F1  3A04               	xorlw	04h&0ffh
  1720  01F2  1D03               	skipz
  1721  01F3  29F5               	goto	u1181
  1722  01F4  29F6               	goto	u1180
  1723  01F5                     u1181:
  1724  01F5  29FE               	goto	l1669
  1725  01F6                     u1180:
  1726                           opt subtitle "HI-TECH Software Omniscient Code Generator (Lite mode) build 49521"
  1727                           
  1728  01F6                     l1667:	
  1729                           opt subtitle "HI-TECH Software Omniscient Code Generator (Lite mode) build 49521"
  1730  01F6  3184  24CA  3181   	fcall	_getc
  1731  01F9  0020               	movlb 0	; select bank0
  1732  01FA  00B7               	movwf	(??_do_bootloader+0)+0
  1733  01FB  0837               	movf	(??_do_bootloader+0)+0,w
  1734  01FC  00B9               	movwf	(do_bootloader@c)
  1735  01FD  29FE               	goto	l1669
  1736                           opt subtitle "HI-TECH Software Omniscient Code Generator (Lite mode) build 49521"
  1737  01FE                     l151:	
  1738                           opt subtitle "HI-TECH Software Omniscient Code Generator (Lite mode) build 49521"
  1739                           
  1740  01FE                     l1669:	
  1741                           opt subtitle "HI-TECH Software Omniscient Code Generator (Lite mode) build 49521"
  1742  01FE  3050               	movlw	(050h)
  1743  01FF  0238               	subwf	(do_bootloader@i),w
  1744  0200  1803               	skipnc
  1745  0201  2A03               	goto	u1191
  1746  0202  2A04               	goto	u1190
  1747  0203                     u1191:
  1748  0203  29E1               	goto	l1659
  1749  0204                     u1190:
  1750                           opt subtitle "HI-TECH Software Omniscient Code Generator (Lite mode) build 49521"
  1751                           
  1752  0204                     l1671:	
  1753                           opt subtitle "HI-TECH Software Omniscient Code Generator (Lite mode) build 49521"
  1754  0204  0839               	movf	(do_bootloader@c),w
  1755  0205  00B7               	movwf	(??_do_bootloader+0)+0
  1756  0206  0838               	movf	(do_bootloader@i),w
  1757  0207  3EA0               	addlw	_pkt&0ffh
  1758  0208  0086               	movwf	fsr1l
  1759  0209  0187               	clrf fsr1h	
  1760                           opt subtitle "HI-TECH Software Omniscient Code Generator (Lite mode) build 49521"
  1761  020A  0837               	movf	(??_do_bootloader+0)+0,w
  1762  020B  0081               	movwf	indf1
  1763                           opt subtitle "HI-TECH Software Omniscient Code Generator (Lite mode) build 49521"
  1764  020C                     l1673:	
  1765  020C  3001               	movlw	(01h)
  1766  020D  00B7               	movwf	(??_do_bootloader+0)+0
  1767  020E  0837               	movf	(??_do_bootloader+0)+0,w
  1768  020F  07B8               	addwf	(do_bootloader@i),f
  1769  0210  29E1               	goto	l1659
  1770                           opt subtitle "HI-TECH Software Omniscient Code Generator (Lite mode) build 49521"
  1771  0211                     l152:	
  1772                           opt subtitle "HI-TECH Software Omniscient Code Generator (Lite mode) build 49521"
  1773                           
  1774  0211  29E1               	goto	l1659
  1775                           opt subtitle "HI-TECH Software Omniscient Code Generator (Lite mode) build 49521"
  1776  0212                     l150:	
  1777                           opt subtitle "HI-TECH Software Omniscient Code Generator (Lite mode) build 49521"
  1778                           
  1779  0212                     l1675:	
  1780                           opt subtitle "HI-TECH Software Omniscient Code Generator (Lite mode) build 49521"
  1781  0212  3180  2010  3181   	fcall	_process_packet
  1782  0215  0020               	movlb 0	; select bank0
  1783  0216  00B7               	movwf	(??_do_bootloader+0)+0
  1784  0217  0837               	movf	(??_do_bootloader+0)+0,w
  1785  0218  00B8               	movwf	(do_bootloader@i)
  1786                           opt subtitle "HI-TECH Software Omniscient Code Generator (Lite mode) build 49521"
  1787                           
  1788  0219                     l1677:	
  1789                           opt subtitle "HI-TECH Software Omniscient Code Generator (Lite mode) build 49521"
  1790  0219  0022               	movlb 2	; select bank2
  1791  021A  158E               	bsf	(270)^0100h,3	;volatile
  1792                           opt subtitle "HI-TECH Software Omniscient Code Generator (Lite mode) build 49521"
  1793                           
  1794  021B  2A5C               	goto	l1703
  1795                           opt subtitle "HI-TECH Software Omniscient Code Generator (Lite mode) build 49521"
  1796                           
  1797                           opt pagewidth 120
  1798  021C                     l154:	
  1799                           opt subtitle "HI-TECH Software Omniscient Code Generator (Lite mode) build 49521"
  1800                           
  1801  021C                     l1679:	
  1802                           opt subtitle "HI-TECH Software Omniscient Code Generator (Lite mode) build 49521"
  1803  021C  30C1               	movlw	(0C1h)
  1804  021D  3184  24FF  3181   	fcall	_putc
  1805                           opt subtitle "HI-TECH Software Omniscient Code Generator (Lite mode) build 49521"
  1806                           
  1807  0220  2A6E               	goto	l1705
  1808                           opt subtitle "HI-TECH Software Omniscient Code Generator (Lite mode) build 49521"
  1809                           
  1810                           opt pagewidth 120
  1811  0221                     l156:	
  1812                           opt subtitle "HI-TECH Software Omniscient Code Generator (Lite mode) build 49521"
  1813                           
  1814  0221                     l1681:	
  1815                           opt subtitle "HI-TECH Software Omniscient Code Generator (Lite mode) build 49521"
  1816  0221  3002               	movlw	(02h)
  1817  0222  3184  24FF  3181   	fcall	_putc
  1818                           opt subtitle "HI-TECH Software Omniscient Code Generator (Lite mode) build 49521"
  1819                           
  1820  0225  2A6E               	goto	l1705
  1821                           opt subtitle "HI-TECH Software Omniscient Code Generator (Lite mode) build 49521"
  1822                           
  1823                           opt pagewidth 120
  1824  0226                     l157:	
  1825                           opt subtitle "HI-TECH Software Omniscient Code Generator (Lite mode) build 49521"
  1826                           
  1827  0226                     l1683:	
  1828                           opt subtitle "HI-TECH Software Omniscient Code Generator (Lite mode) build 49521"
  1829  0226  3181  2120  3181   	fcall	_send_query_response
  1830                           opt subtitle "HI-TECH Software Omniscient Code Generator (Lite mode) build 49521"
  1831                           
  1832  0229  2A6E               	goto	l1705
  1833                           opt subtitle "HI-TECH Software Omniscient Code Generator (Lite mode) build 49521"
  1834                           
  1835                           opt pagewidth 120
  1836  022A                     l158:	
  1837                           opt subtitle "HI-TECH Software Omniscient Code Generator (Lite mode) build 49521"
  1838                           
  1839  022A                     l1685:	
  1840                           opt subtitle "HI-TECH Software Omniscient Code Generator (Lite mode) build 49521"
  1841  022A  30C1               	movlw	(0C1h)
  1842  022B  3184  24FF  3181   	fcall	_putc
  1843                           opt subtitle "HI-TECH Software Omniscient Code Generator (Lite mode) build 49521"
  1844                           
  1845  022E                     l1687:	
  1846                           opt subtitle "HI-TECH Software Omniscient Code Generator (Lite mode) build 49521"
  1847  022E  3184  24F0  3181   	fcall	_tx_wait_empty
  1848                           opt subtitle "HI-TECH Software Omniscient Code Generator (Lite mode) build 49521"
  1849                           
  1850  0231                     l1689:	
  1851                           opt subtitle "HI-TECH Software Omniscient Code Generator (Lite mode) build 49521"
  1852  0231  0022               	movlb 2	; select bank2
  1853  0232  118E               	bcf	(270)^0100h,3	;volatile
  1854                           opt subtitle "HI-TECH Software Omniscient Code Generator (Lite mode) build 49521"
  1855                           
  1856  0233  0020               	movlb 0	; select bank0
  1857  0234  0841               	movf	(_cmd),w
  1858  0235  3AAA               	xorlw	0AAh&0ffh
  1859  0236  1D03               	skipz
  1860  0237  2A39               	goto	u1201
  1861  0238  2A3A               	goto	u1200
  1862  0239                     u1201:
  1863  0239  2A3D               	goto	l1693
  1864  023A                     u1200:
  1865                           opt subtitle "HI-TECH Software Omniscient Code Generator (Lite mode) build 49521"
  1866                           
  1867  023A                     l1691:	
  1868                           opt subtitle "HI-TECH Software Omniscient Code Generator (Lite mode) build 49521"
  1869  023A  3180 2800          ljmp 0 ;# 
  1870                           opt subtitle "HI-TECH Software Omniscient Code Generator (Lite mode) build 49521"
  1871  023C  2A55               	goto	l1699
  1872                           opt subtitle "HI-TECH Software Omniscient Code Generator (Lite mode) build 49521"
  1873                           
  1874  023D                     l159:	
  1875                           opt subtitle "HI-TECH Software Omniscient Code Generator (Lite mode) build 49521"
  1876                           
  1877  023D                     l1693:	
  1878                           opt subtitle "HI-TECH Software Omniscient Code Generator (Lite mode) build 49521"
  1879                           
  1880  023D  30FE               	movlw	(0FEh)
  1881  023E  3184  24AE  3181   	fcall	_eeprom_read
  1882  0241  3AFF               	xorlw	0FFh&0ffh
  1883  0242  1903               	skipnz
  1884  0243  2A45               	goto	u1211
  1885  0244  2A46               	goto	u1210
  1886  0245                     u1211:
  1887  0245  2A50               	goto	l1697
  1888  0246                     u1210:
  1889                           opt subtitle "HI-TECH Software Omniscient Code Generator (Lite mode) build 49521"
  1890                           
  1891  0246                     l1695:	
  1892                           opt subtitle "HI-TECH Software Omniscient Code Generator (Lite mode) build 49521"
  1893  0246  30FF               	movlw	(0FFh)
  1894  0247  0020               	movlb 0	; select bank0
  1895  0248  00B7               	movwf	(??_do_bootloader+0)+0
  1896  0249  0837               	movf	(??_do_bootloader+0)+0,w
  1897  024A  00F1               	movwf	(?_eeprom_write)
  1898  024B  30FE               	movlw	(0FEh)
  1899  024C  3184  245C  3181   	fcall	_eeprom_write
  1900  024F  2A50               	goto	l1697
  1901                           opt subtitle "HI-TECH Software Omniscient Code Generator (Lite mode) build 49521"
  1902  0250                     l161:	
  1903                           opt subtitle "HI-TECH Software Omniscient Code Generator (Lite mode) build 49521"
  1904                           
  1905  0250                     l1697:	
  1906                           opt subtitle "HI-TECH Software Omniscient Code Generator (Lite mode) build 49521"
  1907  0250  3185  250D  3181   	fcall	_start_app
  1908  0253  2A55               	goto	l1699
  1909                           opt subtitle "HI-TECH Software Omniscient Code Generator (Lite mode) build 49521"
  1910                           
  1911  0254                     l160:	
  1912  0254  2A55               	goto	l1699
  1913                           opt subtitle "HI-TECH Software Omniscient Code Generator (Lite mode) build 49521"
  1914                           
  1915                           opt pagewidth 120
  1916                           
  1917  0255                     l162:	
  1918                           opt subtitle "HI-TECH Software Omniscient Code Generator (Lite mode) build 49521"
  1919                           
  1920  0255                     l1699:	
  1921                           opt subtitle "HI-TECH Software Omniscient Code Generator (Lite mode) build 49521"
  1922  0255  3081               	movlw	(081h)
  1923  0256  3184  24FF  3181   	fcall	_putc
  1924                           opt subtitle "HI-TECH Software Omniscient Code Generator (Lite mode) build 49521"
  1925                           
  1926  0259  2A6E               	goto	l1705
  1927                           opt subtitle "HI-TECH Software Omniscient Code Generator (Lite mode) build 49521"
  1928                           
  1929                           opt pagewidth 120
  1930  025A                     l163:	
  1931                           opt subtitle "HI-TECH Software Omniscient Code Generator (Lite mode) build 49521"
  1932                           
  1933  025A  2A6E               	goto	l1705
  1934                           opt subtitle "HI-TECH Software Omniscient Code Generator (Lite mode) build 49521"
  1935                           
  1936  025B                     l1701:	
  1937                           opt subtitle "HI-TECH Software Omniscient Code Generator (Lite mode) build 49521"
  1938  025B  2A6E               	goto	l1705
  1939                           opt subtitle "HI-TECH Software Omniscient Code Generator (Lite mode) build 49521"
  1940                           
  1941  025C                     l153:	
  1942                           opt subtitle "HI-TECH Software Omniscient Code Generator (Lite mode) build 49521"
  1943  025C                     l1703:	
  1944  025C  0020               	movlb 0	; select bank0
  1945  025D  0838               	movf	(do_bootloader@i),w
  1946                           opt subtitle "HI-TECH Software Omniscient Code Generator (Lite mode) build 49521"
  1947                           
  1948                           opt pagewidth 120
  1949                           
  1950                           	opt lm
  1951                           
  1952                           	processor	16F1825
  1953                           clrc	macro
  1954                           	bcf	3,0
  1955  025E  3A01               	xorlw	1^0	; case 1
  1956  025F  1903               	skipnz
  1957  0260  2A26               	goto	l1683
  1958  0261  3A03               	xorlw	2^1	; case 2
  1959  0262  1903               	skipnz
  1960  0263  2A21               	goto	l1681
  1961  0264  3A01               	xorlw	3^2	; case 3
  1962  0265  1903               	skipnz
  1963  0266  2A2A               	goto	l1685
  1964  0267  3A82               	xorlw	129^3	; case 129
  1965  0268  1903               	skipnz
  1966  0269  2A55               	goto	l1699
  1967  026A  3A40               	xorlw	193^129	; case 193
  1968  026B  1903               	skipnz
  1969  026C  2A1C               	goto	l1679
  1970  026D  2A6E               	goto	l1705
  1971                           opt subtitle "HI-TECH Software Omniscient Code Generator (Lite mode) build 49521"
  1972                           
  1973                           opt pagewidth 120
  1974                           
  1975  026E                     l155:	
  1976                           opt subtitle "HI-TECH Software Omniscient Code Generator (Lite mode) build 49521"
  1977                           
  1978  026E                     l1705:	
  1979                           opt subtitle "HI-TECH Software Omniscient Code Generator (Lite mode) build 49521"
  1980  026E  3184  24F0  3181   	fcall	_tx_wait_empty
  1981                           opt subtitle "HI-TECH Software Omniscient Code Generator (Lite mode) build 49521"
  1982                           
  1983  0271                     l1707:	
  1984                           opt subtitle "HI-TECH Software Omniscient Code Generator (Lite mode) build 49521"
  1985  0271  0022               	movlb 2	; select bank2
  1986  0272  118E               	bcf	(270)^0100h,3	;volatile
  1987  0273  29D0               	goto	l145
  1988                           opt subtitle "HI-TECH Software Omniscient Code Generator (Lite mode) build 49521"
  1989                           
  1990  0274                     l147:	
  1991                           opt subtitle "HI-TECH Software Omniscient Code Generator (Lite mode) build 49521"
  1992  0274  29D0               	goto	l145
  1993                           opt subtitle "HI-TECH Software Omniscient Code Generator (Lite mode) build 49521"
  1994  0275                     l164:	
  1995                           opt subtitle "HI-TECH Software Omniscient Code Generator (Lite mode) build 49521"
  1996                           
  1997  0275                     l165:	
  1998  0275  0008               	return
  1999                           opt subtitle "HI-TECH Software Omniscient Code Generator (Lite mode) build 49521"
  2000                           
  2001  0276                     	__end_of_do_bootloader:
  2002                           opt subtitle "HI-TECH Software Omniscient Code Generator (Lite mode) build 49521"
  2003                           
  2004                           opt pagewidth 120
  2005                           
  2006                           	opt lm
  2007                           
  2008                           	processor	16F1825
  2009                           clrc	macro
  2010                           	bcf	3,0
  2011                           	endm
  2012                           clrz	macro
  2013                           	bcf	3,2
  2014                           	endm
  2015                           setc	macro
  2016                           	bsf	3,0
  2017                           	endm
  2018                           setz	macro
  2019                           	bsf	3,2
  2020                           	endm
  2021                           skipc	macro
  2022                           	btfss	3,0
  2023                           	endm
  2024                           skipz	macro
  2025                           	btfss	3,2
  2026                           	endm
  2027                           skipnc	macro
  2028                           	btfsc	3,0
  2029                           	endm
  2030                           skipnz	macro
  2031                           	btfsc	3,2
  2032                           	endm
  2033                           indf	equ	0
  2034                           indf0	equ	0
  2035                           indf1	equ	1
  2036                           pc	equ	2
  2037  050D                     __ptext533:	;psect for function _start_app
  2038                           opt subtitle "HI-TECH Software Omniscient Code Generator (Lite mode) build 49521"
  2039                           
  2040                           opt pagewidth 120
  2041                           
  2042  0003                     	__size_of_start_app	equ	__end_of_start_app-_start_app
  2043                           opt subtitle "HI-TECH Software Omniscient Code Generator (Lite mode) build 49521"
  2044  050D                     _start_app:	
  2045                           opt subtitle "HI-TECH Software Omniscient Code Generator (Lite mode) build 49521"
  2046                           
  2047                           opt pagewidth 120
  2048                           
  2049  050D                     l1151:	
  2050                           opt subtitle "HI-TECH Software Omniscient Code Generator (Lite mode) build 49521"
  2051  050D  3188 2800          LJMP 0x800; ;# 
  2052                           opt subtitle "HI-TECH Software Omniscient Code Generator (Lite mode) build 49521"
  2053                           
  2054                           opt pagewidth 120
  2055  050F                     l61:	
  2056  050F  0008               	return
  2057                           opt subtitle "HI-TECH Software Omniscient Code Generator (Lite mode) build 49521"
  2058                           
  2059  0510                     	__end_of_start_app:
  2060                           opt subtitle "HI-TECH Software Omniscient Code Generator (Lite mode) build 49521"
  2061                           
  2062                           opt pagewidth 120
  2063                           
  2064                           	opt lm
  2065                           
  2066                           	processor	16F1825
  2067                           clrc	macro
  2068                           	bcf	3,0
  2069                           	endm
  2070                           clrz	macro
  2071                           	bcf	3,2
  2072                           	endm
  2073                           setc	macro
  2074                           	bsf	3,0
  2075                           	endm
  2076                           setz	macro
  2077                           	bsf	3,2
  2078                           	endm
  2079                           skipc	macro
  2080                           	btfss	3,0
  2081                           	endm
  2082                           skipz	macro
  2083                           	btfss	3,2
  2084                           	endm
  2085                           skipnc	macro
  2086                           	btfsc	3,0
  2087                           	endm
  2088                           skipnz	macro
  2089                           	btfsc	3,2
  2090                           	endm
  2091                           indf	equ	0
  2092                           indf0	equ	0
  2093                           indf1	equ	1
  2094  04CA                     __ptext534:	;psect for function _getc
  2095                           opt subtitle "HI-TECH Software Omniscient Code Generator (Lite mode) build 49521"
  2096                           
  2097                           opt pagewidth 120
  2098                           
  2099  0015                     	__size_of_getc	equ	__end_of_getc-_getc
  2100                           opt subtitle "HI-TECH Software Omniscient Code Generator (Lite mode) build 49521"
  2101  04CA                     _getc:	
  2102                           opt subtitle "HI-TECH Software Omniscient Code Generator (Lite mode) build 49521"
  2103                           
  2104                           opt pagewidth 120
  2105                           
  2106  04CA                     l1213:	
  2107                           opt subtitle "HI-TECH Software Omniscient Code Generator (Lite mode) build 49521"
  2108  04CA  2CD5               	goto	l88
  2109                           opt subtitle "HI-TECH Software Omniscient Code Generator (Lite mode) build 49521"
  2110  04CB                     l89:	
  2111                           opt subtitle "HI-TECH Software Omniscient Code Generator (Lite mode) build 49521"
  2112                           
  2113  04CB  0023               	movlb 3	; select bank3
  2114  04CC  1C9D               	btfss	(413)^0180h,1	;volatile
  2115  04CD  2CCF               	goto	u641
  2116  04CE  2CD0               	goto	u640
  2117  04CF                     u641:
  2118  04CF  2CD5               	goto	l88
  2119  04D0                     u640:
  2120                           opt subtitle "HI-TECH Software Omniscient Code Generator (Lite mode) build 49521"
  2121                           
  2122  04D0                     l1215:	
  2123                           opt subtitle "HI-TECH Software Omniscient Code Generator (Lite mode) build 49521"
  2124  04D0  139D               	bcf	(413)^0180h,7	;volatile
  2125                           opt subtitle "HI-TECH Software Omniscient Code Generator (Lite mode) build 49521"
  2126                           
  2127  04D1  0000               	nop
  2128                           opt subtitle "HI-TECH Software Omniscient Code Generator (Lite mode) build 49521"
  2129                           
  2130  04D2  0023               	movlb 3	; select bank3
  2131  04D3  179D               	bsf	(413)^0180h,7	;volatile
  2132  04D4  2CD5               	goto	l88
  2133                           opt subtitle "HI-TECH Software Omniscient Code Generator (Lite mode) build 49521"
  2134                           
  2135  04D5                     l90:	
  2136                           opt subtitle "HI-TECH Software Omniscient Code Generator (Lite mode) build 49521"
  2137                           
  2138  04D5                     l88:	
  2139                           opt subtitle "HI-TECH Software Omniscient Code Generator (Lite mode) build 49521"
  2140  04D5  0020               	movlb 0	; select bank0
  2141  04D6  1E91               	btfss	(17),5	;volatile
  2142  04D7  2CD9               	goto	u651
  2143  04D8  2CDA               	goto	u650
  2144  04D9                     u651:
  2145  04D9  2CCB               	goto	l89
  2146  04DA                     u650:
  2147  04DA  2CDB               	goto	l1217
  2148                           opt subtitle "HI-TECH Software Omniscient Code Generator (Lite mode) build 49521"
  2149  04DB                     l91:	
  2150                           opt subtitle "HI-TECH Software Omniscient Code Generator (Lite mode) build 49521"
  2151                           
  2152  04DB                     l1217:	
  2153                           opt subtitle "HI-TECH Software Omniscient Code Generator (Lite mode) build 49521"
  2154                           
  2155  04DB  0023               	movlb 3	; select bank3
  2156  04DC  0819               	movf	(409)^0180h,w	;volatile
  2157  04DD  2CDE               	goto	l92
  2158                           opt subtitle "HI-TECH Software Omniscient Code Generator (Lite mode) build 49521"
  2159  04DE                     l1219:	
  2160                           opt subtitle "HI-TECH Software Omniscient Code Generator (Lite mode) build 49521"
  2161                           
  2162  04DE                     l92:	
  2163  04DE  0008               	return
  2164                           opt subtitle "HI-TECH Software Omniscient Code Generator (Lite mode) build 49521"
  2165                           
  2166  04DF                     	__end_of_getc:
  2167                           opt subtitle "HI-TECH Software Omniscient Code Generator (Lite mode) build 49521"
  2168                           
  2169                           opt pagewidth 120
  2170                           
  2171                           	opt lm
  2172                           
  2173                           	processor	16F1825
  2174                           clrc	macro
  2175                           	bcf	3,0
  2176                           	endm
  2177                           clrz	macro
  2178                           	bcf	3,2
  2179                           	endm
  2180                           setc	macro
  2181                           	bsf	3,0
  2182                           	endm
  2183                           setz	macro
  2184                           	bsf	3,2
  2185                           	endm
  2186                           skipc	macro
  2187                           	btfss	3,0
  2188                           	endm
  2189                           skipz	macro
  2190                           	btfss	3,2
  2191                           	endm
  2192                           skipnc	macro
  2193                           	btfsc	3,0
  2194                           	endm
  2195                           skipnz	macro
  2196                           	btfsc	3,2
  2197                           	endm
  2198                           indf	equ	0
  2199                           indf0	equ	0
  2200                           indf1	equ	1
  2201                           pc	equ	2
  2202                           pcl	equ	2
  2203                           status	equ	3
  2204                           fsr0l	equ	4
  2205                           fsr0h	equ	5
  2206  0120                     __ptext535:	;psect for function _send_query_response
  2207                           opt subtitle "HI-TECH Software Omniscient Code Generator (Lite mode) build 49521"
  2208                           
  2209                           opt pagewidth 120
  2210                           
  2211  00B0                     	__size_of_send_query_response	equ	__end_of_send_query_response-_send_query_response
  2212                           opt subtitle "HI-TECH Software Omniscient Code Generator (Lite mode) build 49521"
  2213  0120                     _send_query_response:	
  2214                           opt subtitle "HI-TECH Software Omniscient Code Generator (Lite mode) build 49521"
  2215                           
  2216                           opt pagewidth 120
  2217                           
  2218  0120                     l1595:	
  2219                           opt subtitle "HI-TECH Software Omniscient Code Generator (Lite mode) build 49521"
  2220                           
  2221                           opt pagewidth 120
  2222                           
  2223  0120  0020               	movlb 0	; select bank0
  2224  0121  01A5               	clrf	(send_query_response@i)
  2225                           opt subtitle "HI-TECH Software Omniscient Code Generator (Lite mode) build 49521"
  2226  0122                     l1597:	
  2227  0122  0825               	movf	(send_query_response@i),w
  2228  0123  3A50               	xorlw	050h&0ffh
  2229  0124  1D03               	skipz
  2230  0125  2927               	goto	u1091
  2231  0126  2928               	goto	u1090
  2232  0127                     u1091:
  2233  0127  292A               	goto	l1601
  2234  0128                     u1090:
  2235  0128  293A               	goto	l1607
  2236                           opt subtitle "HI-TECH Software Omniscient Code Generator (Lite mode) build 49521"
  2237  0129                     l1599:	
  2238  0129  293A               	goto	l1607
  2239                           opt subtitle "HI-TECH Software Omniscient Code Generator (Lite mode) build 49521"
  2240                           
  2241  012A                     l95:	
  2242                           opt subtitle "HI-TECH Software Omniscient Code Generator (Lite mode) build 49521"
  2243  012A                     l1601:	
  2244                           opt subtitle "HI-TECH Software Omniscient Code Generator (Lite mode) build 49521"
  2245  012A  0825               	movf	(send_query_response@i),w
  2246  012B  3EA0               	addlw	_pkt&0ffh
  2247  012C  0086               	movwf	fsr1l
  2248  012D  0187               	clrf fsr1h	
  2249                           opt subtitle "HI-TECH Software Omniscient Code Generator (Lite mode) build 49521"
  2250  012E  0181               	clrf	indf1
  2251                           opt subtitle "HI-TECH Software Omniscient Code Generator (Lite mode) build 49521"
  2252                           
  2253  012F                     l1603:	
  2254  012F  3001               	movlw	(01h)
  2255  0130  00A0               	movwf	(??_send_query_response+0)+0
  2256  0131  0820               	movf	(??_send_query_response+0)+0,w
  2257  0132  07A5               	addwf	(send_query_response@i),f
  2258                           opt subtitle "HI-TECH Software Omniscient Code Generator (Lite mode) build 49521"
  2259  0133                     l1605:	
  2260  0133  0825               	movf	(send_query_response@i),w
  2261  0134  3A50               	xorlw	050h&0ffh
  2262  0135  1D03               	skipz
  2263  0136  2938               	goto	u1101
  2264  0137  2939               	goto	u1100
  2265  0138                     u1101:
  2266  0138  292A               	goto	l1601
  2267  0139                     u1100:
  2268  0139  293A               	goto	l1607
  2269                           opt subtitle "HI-TECH Software Omniscient Code Generator (Lite mode) build 49521"
  2270  013A                     l96:	
  2271                           opt subtitle "HI-TECH Software Omniscient Code Generator (Lite mode) build 49521"
  2272                           
  2273  013A                     l1607:	
  2274                           opt subtitle "HI-TECH Software Omniscient Code Generator (Lite mode) build 49521"
  2275  013A  3000               	movlw	low(0800h)
  2276  013B  0021               	movlb 1	; select bank1
  2277  013C  00A7               	movwf	0+(_pkt)^080h+07h
  2278  013D  3008               	movlw	high(0800h)
  2279  013E  00A8               	movwf	(0+(_pkt)^080h+07h)+1
  2280                           opt subtitle "HI-TECH Software Omniscient Code Generator (Lite mode) build 49521"
  2281                           
  2282  013F  3000               	movlw	low(01800h)
  2283  0140  00A9               	movwf	0+(_pkt)^080h+09h
  2284  0141  3018               	movlw	high(01800h)
  2285  0142  00AA               	movwf	(0+(_pkt)^080h+09h)+1
  2286                           opt subtitle "HI-TECH Software Omniscient Code Generator (Lite mode) build 49521"
  2287                           
  2288  0143  30FF               	movlw	low(03FFFh)
  2289  0144  00AB               	movwf	0+(_pkt)^080h+0Bh
  2290  0145  303F               	movlw	high(03FFFh)
  2291  0146  00AC               	movwf	(0+(_pkt)^080h+0Bh)+1
  2292                           opt subtitle "HI-TECH Software Omniscient Code Generator (Lite mode) build 49521"
  2293                           
  2294  0147                     l1609:	
  2295                           opt subtitle "HI-TECH Software Omniscient Code Generator (Lite mode) build 49521"
  2296  0147  01AD               	clrf	0+(_pkt)^080h+0Dh
  2297                           opt subtitle "HI-TECH Software Omniscient Code Generator (Lite mode) build 49521"
  2298                           
  2299  0148                     l1611:	
  2300                           opt subtitle "HI-TECH Software Omniscient Code Generator (Lite mode) build 49521"
  2301  0148  01AE               	clrf	0+(_pkt)^080h+0Eh
  2302                           opt subtitle "HI-TECH Software Omniscient Code Generator (Lite mode) build 49521"
  2303                           
  2304  0149                     l1613:	
  2305                           opt subtitle "HI-TECH Software Omniscient Code Generator (Lite mode) build 49521"
  2306  0149  0020               	movlb 0	; select bank0
  2307  014A  01A5               	clrf	(send_query_response@i)
  2308  014B  30AF               	movlw	(_pkt+0Fh)&0ffh
  2309  014C  00A0               	movwf	(??_send_query_response+0)+0
  2310  014D  0820               	movf	(??_send_query_response+0)+0,w
  2311  014E  00A4               	movwf	(send_query_response@q)
  2312  014F  0825               	movf	(send_query_response@i),w
  2313  0150  3A10               	xorlw	010h&0ffh
  2314  0151  1D03               	skipz
  2315  0152  2954               	goto	u1111
  2316  0153  2955               	goto	u1110
  2317  0154                     u1111:
  2318  0154  2957               	goto	l1617
  2319  0155                     u1110:
  2320  0155  2983               	goto	l1631
  2321                           opt subtitle "HI-TECH Software Omniscient Code Generator (Lite mode) build 49521"
  2322  0156                     l1615:	
  2323  0156  2983               	goto	l1631
  2324                           opt subtitle "HI-TECH Software Omniscient Code Generator (Lite mode) build 49521"
  2325  0157                     l97:	
  2326                           opt subtitle "HI-TECH Software Omniscient Code Generator (Lite mode) build 49521"
  2327                           
  2328  0157                     l1617:	
  2329                           opt subtitle "HI-TECH Software Omniscient Code Generator (Lite mode) build 49521"
  2330  0157  0825               	movf	(send_query_response@i),w
  2331  0158  3184  248A  3181   	fcall	_read_configmem_word
  2332  015B  0872               	movf	(1+(?_read_configmem_word)),w
  2333  015C  0020               	movlb 0	; select bank0
  2334  015D  01A3               	clrf	(send_query_response@v+1)
  2335  015E  07A3               	addwf	(send_query_response@v+1)
  2336  015F  0871               	movf	(0+(?_read_configmem_word)),w
  2337  0160  01A2               	clrf	(send_query_response@v)
  2338  0161  07A2               	addwf	(send_query_response@v)
  2339                           opt subtitle "HI-TECH Software Omniscient Code Generator (Lite mode) build 49521"
  2340                           
  2341                           opt pagewidth 120
  2342  0162                     l1619:	
  2343                           opt subtitle "HI-TECH Software Omniscient Code Generator (Lite mode) build 49521"
  2344  0162  0822               	movf	(send_query_response@v),w
  2345  0163  00A0               	movwf	(??_send_query_response+0)+0
  2346  0164  0824               	movf	(send_query_response@q),w
  2347  0165  0086               	movwf	fsr1l
  2348  0166  0187               	clrf fsr1h	
  2349                           opt subtitle "HI-TECH Software Omniscient Code Generator (Lite mode) build 49521"
  2350  0167  0820               	movf	(??_send_query_response+0)+0,w
  2351  0168  0081               	movwf	indf1
  2352                           opt subtitle "HI-TECH Software Omniscient Code Generator (Lite mode) build 49521"
  2353  0169                     l1621:	
  2354  0169  3001               	movlw	(01h)
  2355  016A  00A0               	movwf	(??_send_query_response+0)+0
  2356  016B  0820               	movf	(??_send_query_response+0)+0,w
  2357  016C  07A4               	addwf	(send_query_response@q),f
  2358                           opt subtitle "HI-TECH Software Omniscient Code Generator (Lite mode) build 49521"
  2359                           
  2360  016D                     l1623:	
  2361                           opt subtitle "HI-TECH Software Omniscient Code Generator (Lite mode) build 49521"
  2362  016D  0823               	movf	(send_query_response@v+1),w
  2363  016E  00A0               	movwf	(??_send_query_response+0)+0
  2364  016F  0824               	movf	(send_query_response@q),w
  2365  0170  0086               	movwf	fsr1l
  2366  0171  0187               	clrf fsr1h	
  2367                           opt subtitle "HI-TECH Software Omniscient Code Generator (Lite mode) build 49521"
  2368  0172  0820               	movf	(??_send_query_response+0)+0,w
  2369  0173  0081               	movwf	indf1
  2370                           opt subtitle "HI-TECH Software Omniscient Code Generator (Lite mode) build 49521"
  2371  0174                     l1625:	
  2372  0174  3001               	movlw	(01h)
  2373  0175  00A0               	movwf	(??_send_query_response+0)+0
  2374  0176  0820               	movf	(??_send_query_response+0)+0,w
  2375  0177  07A4               	addwf	(send_query_response@q),f
  2376                           opt subtitle "HI-TECH Software Omniscient Code Generator (Lite mode) build 49521"
  2377                           
  2378  0178                     l1627:	
  2379  0178  3001               	movlw	(01h)
  2380  0179  00A0               	movwf	(??_send_query_response+0)+0
  2381  017A  0820               	movf	(??_send_query_response+0)+0,w
  2382  017B  07A5               	addwf	(send_query_response@i),f
  2383                           opt subtitle "HI-TECH Software Omniscient Code Generator (Lite mode) build 49521"
  2384  017C                     l1629:	
  2385  017C  0825               	movf	(send_query_response@i),w
  2386  017D  3A10               	xorlw	010h&0ffh
  2387  017E  1D03               	skipz
  2388  017F  2981               	goto	u1121
  2389  0180  2982               	goto	u1120
  2390  0181                     u1121:
  2391  0181  2957               	goto	l1617
  2392  0182                     u1120:
  2393  0182  2983               	goto	l1631
  2394                           opt subtitle "HI-TECH Software Omniscient Code Generator (Lite mode) build 49521"
  2395  0183                     l98:	
  2396                           opt subtitle "HI-TECH Software Omniscient Code Generator (Lite mode) build 49521"
  2397                           
  2398  0183                     l1631:	
  2399                           opt subtitle "HI-TECH Software Omniscient Code Generator (Lite mode) build 49521"
  2400                           
  2401  0183  3000               	movlw	low(0)
  2402  0184  00F1               	movwf	(?_calc_crc16)
  2403  0185  3000               	movlw	high(0)
  2404  0186  00F2               	movwf	((?_calc_crc16))+1
  2405  0187  30A0               	movlw	(_pkt)&0ffh
  2406  0188  00A0               	movwf	(??_send_query_response+0)+0
  2407  0189  0820               	movf	(??_send_query_response+0)+0,w
  2408  018A  00F3               	movwf	0+(?_calc_crc16)+02h
  2409  018B  304E               	movlw	(04Eh)
  2410  018C  00A1               	movwf	(??_send_query_response+1)+0
  2411  018D  0821               	movf	(??_send_query_response+1)+0,w
  2412  018E  00F4               	movwf	0+(?_calc_crc16)+03h
  2413  018F  3183  23D1  3181   	fcall	_calc_crc16
  2414  0192  0872               	movf	(1+(?_calc_crc16)),w
  2415  0193  0021               	movlb 1	; select bank1
  2416  0194  01EF               	clrf	1+(_pkt)^080h+04Eh
  2417  0195  07EF               	addwf	1+(_pkt)^080h+04Eh
  2418  0196  0871               	movf	(0+(?_calc_crc16)),w
  2419  0197  01EE               	clrf	0+(_pkt)^080h+04Eh
  2420  0198  07EE               	addwf	0+(_pkt)^080h+04Eh
  2421                           opt subtitle "HI-TECH Software Omniscient Code Generator (Lite mode) build 49521"
  2422                           
  2423                           opt pagewidth 120
  2424  0199                     l1633:	
  2425                           opt subtitle "HI-TECH Software Omniscient Code Generator (Lite mode) build 49521"
  2426  0199  3002               	movlw	(02h)
  2427  019A  3184  24FF  3181   	fcall	_putc
  2428                           opt subtitle "HI-TECH Software Omniscient Code Generator (Lite mode) build 49521"
  2429                           
  2430  019D                     l1635:	
  2431                           opt subtitle "HI-TECH Software Omniscient Code Generator (Lite mode) build 49521"
  2432  019D  0020               	movlb 0	; select bank0
  2433  019E  01A5               	clrf	(send_query_response@i)
  2434                           opt subtitle "HI-TECH Software Omniscient Code Generator (Lite mode) build 49521"
  2435  019F                     l1637:	
  2436  019F  0825               	movf	(send_query_response@i),w
  2437  01A0  3A50               	xorlw	050h&0ffh
  2438  01A1  1D03               	skipz
  2439  01A2  29A4               	goto	u1131
  2440  01A3  29A5               	goto	u1130
  2441  01A4                     u1131:
  2442  01A4  29A7               	goto	l1641
  2443  01A5                     u1130:
  2444  01A5  29CB               	goto	l1651
  2445                           opt subtitle "HI-TECH Software Omniscient Code Generator (Lite mode) build 49521"
  2446  01A6                     l1639:	
  2447  01A6  29CB               	goto	l1651
  2448                           opt subtitle "HI-TECH Software Omniscient Code Generator (Lite mode) build 49521"
  2449  01A7                     l99:	
  2450                           opt subtitle "HI-TECH Software Omniscient Code Generator (Lite mode) build 49521"
  2451                           
  2452  01A7                     l1641:	
  2453                           opt subtitle "HI-TECH Software Omniscient Code Generator (Lite mode) build 49521"
  2454  01A7  0825               	movf	(send_query_response@i),w
  2455  01A8  3EA0               	addlw	_pkt&0ffh
  2456  01A9  0086               	movwf	fsr1l
  2457  01AA  0187               	clrf fsr1h	
  2458                           opt subtitle "HI-TECH Software Omniscient Code Generator (Lite mode) build 49521"
  2459  01AB  3005               	movlw	(05h)
  2460  01AC  0201               	subwf	indf1,w
  2461  01AD  1803               	skipnc
  2462  01AE  29B0               	goto	u1141
  2463  01AF  29B1               	goto	u1140
  2464  01B0                     u1141:
  2465  01B0  29B6               	goto	l1645
  2466  01B1                     u1140:
  2467                           opt subtitle "HI-TECH Software Omniscient Code Generator (Lite mode) build 49521"
  2468                           
  2469  01B1                     l1643:	
  2470                           opt subtitle "HI-TECH Software Omniscient Code Generator (Lite mode) build 49521"
  2471  01B1  3004               	movlw	(04h)
  2472  01B2  3184  24FF  3181   	fcall	_putc
  2473  01B5  29B6               	goto	l1645
  2474                           opt subtitle "HI-TECH Software Omniscient Code Generator (Lite mode) build 49521"
  2475  01B6                     l101:	
  2476                           opt subtitle "HI-TECH Software Omniscient Code Generator (Lite mode) build 49521"
  2477                           
  2478  01B6                     l1645:	
  2479                           opt subtitle "HI-TECH Software Omniscient Code Generator (Lite mode) build 49521"
  2480  01B6  0020               	movlb 0	; select bank0
  2481  01B7  0825               	movf	(send_query_response@i),w
  2482  01B8  3EA0               	addlw	_pkt&0ffh
  2483  01B9  0086               	movwf	fsr1l
  2484  01BA  0187               	clrf fsr1h	
  2485                           opt subtitle "HI-TECH Software Omniscient Code Generator (Lite mode) build 49521"
  2486  01BB  0801               	movf	indf1,w
  2487  01BC  3184  24FF  3181   	fcall	_putc
  2488                           opt subtitle "HI-TECH Software Omniscient Code Generator (Lite mode) build 49521"
  2489                           
  2490  01BF                     l1647:	
  2491  01BF  3001               	movlw	(01h)
  2492  01C0  0020               	movlb 0	; select bank0
  2493  01C1  00A0               	movwf	(??_send_query_response+0)+0
  2494  01C2  0820               	movf	(??_send_query_response+0)+0,w
  2495  01C3  07A5               	addwf	(send_query_response@i),f
  2496                           opt subtitle "HI-TECH Software Omniscient Code Generator (Lite mode) build 49521"
  2497  01C4                     l1649:	
  2498  01C4  0825               	movf	(send_query_response@i),w
  2499  01C5  3A50               	xorlw	050h&0ffh
  2500  01C6  1D03               	skipz
  2501  01C7  29C9               	goto	u1151
  2502  01C8  29CA               	goto	u1150
  2503  01C9                     u1151:
  2504  01C9  29A7               	goto	l1641
  2505  01CA                     u1150:
  2506  01CA  29CB               	goto	l1651
  2507                           opt subtitle "HI-TECH Software Omniscient Code Generator (Lite mode) build 49521"
  2508  01CB                     l100:	
  2509                           opt subtitle "HI-TECH Software Omniscient Code Generator (Lite mode) build 49521"
  2510                           
  2511  01CB                     l1651:	
  2512                           opt subtitle "HI-TECH Software Omniscient Code Generator (Lite mode) build 49521"
  2513                           
  2514  01CB  3003               	movlw	(03h)
  2515  01CC  3184  24FF  3181   	fcall	_putc
  2516                           opt subtitle "HI-TECH Software Omniscient Code Generator (Lite mode) build 49521"
  2517                           
  2518  01CF                     l102:	
  2519  01CF  0008               	return
  2520                           opt subtitle "HI-TECH Software Omniscient Code Generator (Lite mode) build 49521"
  2521                           
  2522  01D0                     	__end_of_send_query_response:
  2523                           opt subtitle "HI-TECH Software Omniscient Code Generator (Lite mode) build 49521"
  2524                           
  2525                           opt pagewidth 120
  2526                           
  2527                           	opt lm
  2528                           
  2529                           	processor	16F1825
  2530                           clrc	macro
  2531                           	bcf	3,0
  2532                           	endm
  2533                           clrz	macro
  2534                           	bcf	3,2
  2535                           	endm
  2536                           setc	macro
  2537                           	bsf	3,0
  2538                           	endm
  2539                           setz	macro
  2540                           	bsf	3,2
  2541                           	endm
  2542                           skipc	macro
  2543                           	btfss	3,0
  2544                           	endm
  2545                           skipz	macro
  2546                           	btfss	3,2
  2547                           	endm
  2548                           skipnc	macro
  2549                           	btfsc	3,0
  2550                           	endm
  2551                           skipnz	macro
  2552                           	btfsc	3,2
  2553                           	endm
  2554                           indf	equ	0
  2555                           indf0	equ	0
  2556                           indf1	equ	1
  2557                           pc	equ	2
  2558  048A                     __ptext536:	;psect for function _read_configmem_word
  2559                           opt subtitle "HI-TECH Software Omniscient Code Generator (Lite mode) build 49521"
  2560                           
  2561                           opt pagewidth 120
  2562                           
  2563  0024                     	__size_of_read_configmem_word	equ	__end_of_read_configmem_word-_read_configmem_word
  2564                           opt subtitle "HI-TECH Software Omniscient Code Generator (Lite mode) build 49521"
  2565  048A                     _read_configmem_word:	
  2566                           opt subtitle "HI-TECH Software Omniscient Code Generator (Lite mode) build 49521"
  2567                           
  2568                           opt pagewidth 120
  2569                           
  2570  048A  00F5               	movwf	(read_configmem_word@wordaddr)
  2571                           opt subtitle "HI-TECH Software Omniscient Code Generator (Lite mode) build 49521"
  2572  048B                     l1183:	
  2573                           opt subtitle "HI-TECH Software Omniscient Code Generator (Lite mode) build 49521"
  2574                           
  2575  048B  0875               	movf	(read_configmem_word@wordaddr),w
  2576  048C  0023               	movlb 3	; select bank3
  2577  048D  0091               	movwf	(401)^0180h	;volatile
  2578                           opt subtitle "HI-TECH Software Omniscient Code Generator (Lite mode) build 49521"
  2579                           
  2580  048E                     l1185:	
  2581                           opt subtitle "HI-TECH Software Omniscient Code Generator (Lite mode) build 49521"
  2582  048E  0192               	clrf	(402)^0180h	;volatile
  2583                           opt subtitle "HI-TECH Software Omniscient Code Generator (Lite mode) build 49521"
  2584                           
  2585  048F                     l1187:	
  2586                           opt subtitle "HI-TECH Software Omniscient Code Generator (Lite mode) build 49521"
  2587  048F  1715               	bsf	(405)^0180h,6	;volatile
  2588                           opt subtitle "HI-TECH Software Omniscient Code Generator (Lite mode) build 49521"
  2589                           
  2590  0490                     l1189:	
  2591                           opt subtitle "HI-TECH Software Omniscient Code Generator (Lite mode) build 49521"
  2592  0490  1415               	bsf	(405)^0180h,0	;volatile
  2593                           opt subtitle "HI-TECH Software Omniscient Code Generator (Lite mode) build 49521"
  2594                           
  2595  0491                     l1191:	
  2596                           opt subtitle "HI-TECH Software Omniscient Code Generator (Lite mode) build 49521"
  2597  0491  0000               	nop
  2598                           opt subtitle "HI-TECH Software Omniscient Code Generator (Lite mode) build 49521"
  2599                           
  2600  0492                     l1193:	
  2601                           opt subtitle "HI-TECH Software Omniscient Code Generator (Lite mode) build 49521"
  2602  0492  0000               	nop
  2603                           opt subtitle "HI-TECH Software Omniscient Code Generator (Lite mode) build 49521"
  2604                           
  2605  0493                     l1195:	
  2606                           opt subtitle "HI-TECH Software Omniscient Code Generator (Lite mode) build 49521"
  2607  0493  0023               	movlb 3	; select bank3
  2608  0494  0814               	movf	(404)^0180h,w	;volatile
  2609  0495  00F3               	movwf	(??_read_configmem_word+0)+0+0
  2610  0496  01F4               	clrf	(??_read_configmem_word+0)+0+1
  2611  0497  0873               	movf	(??_read_configmem_word+0)+0,w
  2612  0498  00F4               	movwf	(??_read_configmem_word+0)+1
  2613  0499  01F3               	clrf	(??_read_configmem_word+0)+0
  2614  049A  0873               	movf	0+(??_read_configmem_word+0)+0,w
  2615  049B  00F6               	movwf	(read_configmem_word@retval)
  2616  049C  0874               	movf	1+(??_read_configmem_word+0)+0,w
  2617  049D  00F7               	movwf	(read_configmem_word@retval+1)
  2618                           opt subtitle "HI-TECH Software Omniscient Code Generator (Lite mode) build 49521"
  2619                           
  2620  049E                     l1197:	
  2621                           opt subtitle "HI-TECH Software Omniscient Code Generator (Lite mode) build 49521"
  2622  049E  0813               	movf	(403)^0180h,w	;volatile
  2623  049F  00F3               	movwf	(??_read_configmem_word+0)+0+0
  2624  04A0  01F4               	clrf	(??_read_configmem_word+0)+0+1
  2625  04A1  0873               	movf	0+(??_read_configmem_word+0)+0,w
  2626  04A2  04F6               	iorwf	(read_configmem_word@retval),f
  2627  04A3  0874               	movf	1+(??_read_configmem_word+0)+0,w
  2628  04A4  04F7               	iorwf	(read_configmem_word@retval+1),f
  2629                           opt subtitle "HI-TECH Software Omniscient Code Generator (Lite mode) build 49521"
  2630                           
  2631  04A5                     l1199:	
  2632                           opt subtitle "HI-TECH Software Omniscient Code Generator (Lite mode) build 49521"
  2633  04A5  1315               	bcf	(405)^0180h,6	;volatile
  2634                           opt subtitle "HI-TECH Software Omniscient Code Generator (Lite mode) build 49521"
  2635                           
  2636  04A6                     l1201:	
  2637                           opt subtitle "HI-TECH Software Omniscient Code Generator (Lite mode) build 49521"
  2638  04A6  0877               	movf	(read_configmem_word@retval+1),w
  2639  04A7  01F2               	clrf	(?_read_configmem_word+1)
  2640  04A8  07F2               	addwf	(?_read_configmem_word+1)
  2641  04A9  0876               	movf	(read_configmem_word@retval),w
  2642  04AA  01F1               	clrf	(?_read_configmem_word)
  2643  04AB  07F1               	addwf	(?_read_configmem_word)
  2644                           opt subtitle "HI-TECH Software Omniscient Code Generator (Lite mode) build 49521"
  2645  04AC  2CAD               	goto	l75
  2646                           opt subtitle "HI-TECH Software Omniscient Code Generator (Lite mode) build 49521"
  2647  04AD                     l1203:	
  2648                           opt subtitle "HI-TECH Software Omniscient Code Generator (Lite mode) build 49521"
  2649                           
  2650  04AD                     l75:	
  2651  04AD  0008               	return
  2652                           opt subtitle "HI-TECH Software Omniscient Code Generator (Lite mode) build 49521"
  2653                           
  2654  04AE                     	__end_of_read_configmem_word:
  2655                           opt subtitle "HI-TECH Software Omniscient Code Generator (Lite mode) build 49521"
  2656                           
  2657                           opt pagewidth 120
  2658                           
  2659                           	opt lm
  2660                           
  2661                           	processor	16F1825
  2662                           clrc	macro
  2663                           	bcf	3,0
  2664                           	endm
  2665                           clrz	macro
  2666                           	bcf	3,2
  2667                           	endm
  2668                           setc	macro
  2669                           	bsf	3,0
  2670                           	endm
  2671                           setz	macro
  2672                           	bsf	3,2
  2673                           	endm
  2674                           skipc	macro
  2675                           	btfss	3,0
  2676                           	endm
  2677                           skipz	macro
  2678                           	btfss	3,2
  2679                           	endm
  2680                           skipnc	macro
  2681                           	btfsc	3,0
  2682                           	endm
  2683                           skipnz	macro
  2684                           	btfsc	3,2
  2685                           	endm
  2686                           indf	equ	0
  2687                           indf0	equ	0
  2688                           indf1	equ	1
  2689                           pc	equ	2
  2690  04FF                     __ptext537:	;psect for function _putc
  2691                           opt subtitle "HI-TECH Software Omniscient Code Generator (Lite mode) build 49521"
  2692                           
  2693                           opt pagewidth 120
  2694                           
  2695  0008                     	__size_of_putc	equ	__end_of_putc-_putc
  2696                           opt subtitle "HI-TECH Software Omniscient Code Generator (Lite mode) build 49521"
  2697  04FF                     _putc:	
  2698                           opt subtitle "HI-TECH Software Omniscient Code Generator (Lite mode) build 49521"
  2699                           
  2700                           opt pagewidth 120
  2701  04FF  00F1               	movwf	(putc@c)
  2702                           opt subtitle "HI-TECH Software Omniscient Code Generator (Lite mode) build 49521"
  2703                           
  2704  0500                     l1209:	
  2705                           opt subtitle "HI-TECH Software Omniscient Code Generator (Lite mode) build 49521"
  2706  0500  3184  24F0  3184   	fcall	_tx_wait_empty
  2707                           opt subtitle "HI-TECH Software Omniscient Code Generator (Lite mode) build 49521"
  2708                           
  2709  0503                     l1211:	
  2710                           opt subtitle "HI-TECH Software Omniscient Code Generator (Lite mode) build 49521"
  2711  0503  0871               	movf	(putc@c),w
  2712  0504  0023               	movlb 3	; select bank3
  2713  0505  009A               	movwf	(410)^0180h	;volatile
  2714                           opt subtitle "HI-TECH Software Omniscient Code Generator (Lite mode) build 49521"
  2715                           
  2716  0506                     l85:	
  2717  0506  0008               	return
  2718                           opt subtitle "HI-TECH Software Omniscient Code Generator (Lite mode) build 49521"
  2719                           
  2720  0507                     	__end_of_putc:
  2721                           opt subtitle "HI-TECH Software Omniscient Code Generator (Lite mode) build 49521"
  2722                           
  2723                           opt pagewidth 120
  2724                           
  2725                           	opt lm
  2726                           
  2727                           	processor	16F1825
  2728                           clrc	macro
  2729                           	bcf	3,0
  2730                           	endm
  2731                           clrz	macro
  2732                           	bcf	3,2
  2733                           	endm
  2734                           setc	macro
  2735                           	bsf	3,0
  2736                           	endm
  2737                           setz	macro
  2738                           	bsf	3,2
  2739                           	endm
  2740                           skipc	macro
  2741                           	btfss	3,0
  2742                           	endm
  2743                           skipz	macro
  2744                           	btfss	3,2
  2745                           	endm
  2746                           skipnc	macro
  2747                           	btfsc	3,0
  2748                           	endm
  2749                           skipnz	macro
  2750                           	btfsc	3,2
  2751                           	endm
  2752                           indf	equ	0
  2753                           indf0	equ	0
  2754                           indf1	equ	1
  2755                           pc	equ	2
  2756  04F0                     __ptext538:	;psect for function _tx_wait_empty
  2757                           opt subtitle "HI-TECH Software Omniscient Code Generator (Lite mode) build 49521"
  2758                           
  2759                           opt pagewidth 120
  2760                           
  2761  000F                     	__size_of_tx_wait_empty	equ	__end_of_tx_wait_empty-_tx_wait_empty
  2762                           opt subtitle "HI-TECH Software Omniscient Code Generator (Lite mode) build 49521"
  2763  04F0                     _tx_wait_empty:	
  2764                           opt subtitle "HI-TECH Software Omniscient Code Generator (Lite mode) build 49521"
  2765                           
  2766                           opt pagewidth 120
  2767                           
  2768                           	opt lm
  2769  04F0                     l78:	
  2770                           opt subtitle "HI-TECH Software Omniscient Code Generator (Lite mode) build 49521"
  2771                           
  2772  04F0  0020               	movlb 0	; select bank0
  2773  04F1  1E11               	btfss	(17),4	;volatile
  2774  04F2  2CF4               	goto	u621
  2775  04F3  2CF5               	goto	u620
  2776  04F4                     u621:
  2777  04F4  2CF0               	goto	l78
  2778  04F5                     u620:
  2779                           opt subtitle "HI-TECH Software Omniscient Code Generator (Lite mode) build 49521"
  2780                           
  2781  04F5                     l1205:	
  2782                           opt subtitle "HI-TECH Software Omniscient Code Generator (Lite mode) build 49521"
  2783  04F5  0023               	movlb 3	; select bank3
  2784  04F6  1C9E               	btfss	(414)^0180h,1	;volatile
  2785  04F7  2CF9               	goto	u631
  2786  04F8  2CFA               	goto	u630
  2787  04F9                     u631:
  2788  04F9  2CF0               	goto	l78
  2789  04FA                     u630:
  2790  04FA  2CFE               	goto	l82
  2791                           opt subtitle "HI-TECH Software Omniscient Code Generator (Lite mode) build 49521"
  2792                           
  2793  04FB                     l1207:	
  2794                           opt subtitle "HI-TECH Software Omniscient Code Generator (Lite mode) build 49521"
  2795  04FB  2CFE               	goto	l82
  2796                           opt subtitle "HI-TECH Software Omniscient Code Generator (Lite mode) build 49521"
  2797  04FC                     l80:	
  2798  04FC  2CF0               	goto	l78
  2799                           opt subtitle "HI-TECH Software Omniscient Code Generator (Lite mode) build 49521"
  2800                           
  2801  04FD                     l79:	
  2802                           opt subtitle "HI-TECH Software Omniscient Code Generator (Lite mode) build 49521"
  2803                           
  2804                           opt pagewidth 120
  2805  04FD  2CF0               	goto	l78
  2806                           opt subtitle "HI-TECH Software Omniscient Code Generator (Lite mode) build 49521"
  2807  04FE                     l81:	
  2808                           opt subtitle "HI-TECH Software Omniscient Code Generator (Lite mode) build 49521"
  2809                           
  2810  04FE                     l82:	
  2811  04FE  0008               	return
  2812                           opt subtitle "HI-TECH Software Omniscient Code Generator (Lite mode) build 49521"
  2813                           
  2814  04FF                     	__end_of_tx_wait_empty:
  2815                           opt subtitle "HI-TECH Software Omniscient Code Generator (Lite mode) build 49521"
  2816                           
  2817                           opt pagewidth 120
  2818                           
  2819                           	opt lm
  2820                           
  2821                           	processor	16F1825
  2822                           clrc	macro
  2823                           	bcf	3,0
  2824                           	endm
  2825                           clrz	macro
  2826                           	bcf	3,2
  2827                           	endm
  2828                           setc	macro
  2829                           	bsf	3,0
  2830                           	endm
  2831                           setz	macro
  2832                           	bsf	3,2
  2833                           	endm
  2834                           skipc	macro
  2835                           	btfss	3,0
  2836                           	endm
  2837                           skipz	macro
  2838                           	btfss	3,2
  2839                           	endm
  2840                           skipnc	macro
  2841                           	btfsc	3,0
  2842                           	endm
  2843                           skipnz	macro
  2844                           	btfsc	3,2
  2845                           	endm
  2846                           indf	equ	0
  2847                           indf0	equ	0
  2848                           indf1	equ	1
  2849                           pc	equ	2
  2850                           pcl	equ	2
  2851                           status	equ	3
  2852                           fsr0l	equ	4
  2853                           fsr0h	equ	5
  2854                           fsr1l	equ	6
  2855                           fsr1h	equ	7
  2856  0010                     __ptext539:	;psect for function _process_packet
  2857                           opt subtitle "HI-TECH Software Omniscient Code Generator (Lite mode) build 49521"
  2858                           
  2859                           opt pagewidth 120
  2860                           
  2861  0110                     	__size_of_process_packet	equ	__end_of_process_packet-_process_packet
  2862                           opt subtitle "HI-TECH Software Omniscient Code Generator (Lite mode) build 49521"
  2863  0010                     _process_packet:	
  2864                           opt subtitle "HI-TECH Software Omniscient Code Generator (Lite mode) build 49521"
  2865                           
  2866                           opt pagewidth 120
  2867                           
  2868  0010                     l1341:	
  2869                           opt subtitle "HI-TECH Software Omniscient Code Generator (Lite mode) build 49521"
  2870                           
  2871                           opt pagewidth 120
  2872                           
  2873                           	opt lm
  2874                           
  2875                           	processor	16F1825
  2876                           clrc	macro
  2877  0010  3000               	movlw	low(0)
  2878  0011  00F1               	movwf	(?_calc_crc16)
  2879  0012  3000               	movlw	high(0)
  2880  0013  00F2               	movwf	((?_calc_crc16))+1
  2881  0014  30A0               	movlw	(_pkt)&0ffh
  2882  0015  0020               	movlb 0	; select bank0
  2883  0016  00AE               	movwf	(??_process_packet+0)+0
  2884  0017  082E               	movf	(??_process_packet+0)+0,w
  2885  0018  00F3               	movwf	0+(?_calc_crc16)+02h
  2886  0019  304E               	movlw	(04Eh)
  2887  001A  00AF               	movwf	(??_process_packet+1)+0
  2888  001B  082F               	movf	(??_process_packet+1)+0,w
  2889  001C  00F4               	movwf	0+(?_calc_crc16)+03h
  2890  001D  3183  23D1  3180   	fcall	_calc_crc16
  2891  0020  0872               	movf	(1+(?_calc_crc16)),w
  2892  0021  0020               	movlb 0	; select bank0
  2893  0022  01B1               	clrf	(process_packet@crc16+1)
  2894  0023  07B1               	addwf	(process_packet@crc16+1)
  2895  0024  0871               	movf	(0+(?_calc_crc16)),w
  2896  0025  01B0               	clrf	(process_packet@crc16)
  2897  0026  07B0               	addwf	(process_packet@crc16)
  2898                           opt subtitle "HI-TECH Software Omniscient Code Generator (Lite mode) build 49521"
  2899                           
  2900                           opt pagewidth 120
  2901  0027                     l1343:	
  2902                           opt subtitle "HI-TECH Software Omniscient Code Generator (Lite mode) build 49521"
  2903  0027  304E               	movlw	(04Eh)
  2904  0028  3EA0               	addlw	_pkt&0ffh
  2905  0029  0086               	movwf	fsr1l
  2906  002A  0187               	clrf fsr1h	
  2907                           opt subtitle "HI-TECH Software Omniscient Code Generator (Lite mode) build 49521"
  2908  002B  3F40               	moviw	[0]fsr1
  2909  002C  0630               	xorwf	(process_packet@crc16),w
  2910  002D  1D03               	skipz
  2911  002E  2831               	goto	u795
  2912  002F  3F41               	moviw	[1]fsr1
  2913  0030  0631               	xorwf	(process_packet@crc16+1),w
  2914  0031                     u795:
  2915  0031  1903               	skipnz
  2916  0032  2834               	goto	u791
  2917  0033  2835               	goto	u790
  2918  0034                     u791:
  2919  0034  2838               	goto	l1349
  2920  0035                     u790:
  2921                           opt subtitle "HI-TECH Software Omniscient Code Generator (Lite mode) build 49521"
  2922                           
  2923  0035                     l1345:	
  2924                           opt subtitle "HI-TECH Software Omniscient Code Generator (Lite mode) build 49521"
  2925  0035  3000               	movlw	(0)
  2926  0036  291F               	goto	l121
  2927                           opt subtitle "HI-TECH Software Omniscient Code Generator (Lite mode) build 49521"
  2928  0037                     l1347:	
  2929  0037  291F               	goto	l121
  2930                           opt subtitle "HI-TECH Software Omniscient Code Generator (Lite mode) build 49521"
  2931                           
  2932  0038                     l120:	
  2933                           opt subtitle "HI-TECH Software Omniscient Code Generator (Lite mode) build 49521"
  2934                           
  2935  0038                     l1349:	
  2936                           opt subtitle "HI-TECH Software Omniscient Code Generator (Lite mode) build 49521"
  2937                           
  2938  0038  0021               	movlb 1	; select bank1
  2939  0039  0820               	movf	(_pkt)^080h,w
  2940  003A  3AFF               	xorlw	0FFh&0ffh
  2941  003B  1903               	skipnz
  2942  003C  283E               	goto	u801
  2943  003D  283F               	goto	u800
  2944  003E                     u801:
  2945  003E  2842               	goto	l1355
  2946  003F                     u800:
  2947                           opt subtitle "HI-TECH Software Omniscient Code Generator (Lite mode) build 49521"
  2948                           
  2949  003F                     l1351:	
  2950                           opt subtitle "HI-TECH Software Omniscient Code Generator (Lite mode) build 49521"
  2951  003F  3000               	movlw	(0)
  2952  0040  291F               	goto	l121
  2953                           opt subtitle "HI-TECH Software Omniscient Code Generator (Lite mode) build 49521"
  2954  0041                     l1353:	
  2955  0041  291F               	goto	l121
  2956                           opt subtitle "HI-TECH Software Omniscient Code Generator (Lite mode) build 49521"
  2957  0042                     l122:	
  2958                           opt subtitle "HI-TECH Software Omniscient Code Generator (Lite mode) build 49521"
  2959                           
  2960  0042                     l1355:	
  2961                           opt subtitle "HI-TECH Software Omniscient Code Generator (Lite mode) build 49521"
  2962  0042  0821               	movf	0+(_pkt)^080h+01h,w
  2963  0043  0020               	movlb 0	; select bank0
  2964  0044  0642               	xorwf	(_myaddress),w
  2965  0045  1903               	skipnz
  2966  0046  2848               	goto	u811
  2967  0047  2849               	goto	u810
  2968  0048                     u811:
  2969  0048  284C               	goto	l1361
  2970  0049                     u810:
  2971                           opt subtitle "HI-TECH Software Omniscient Code Generator (Lite mode) build 49521"
  2972                           
  2973  0049                     l1357:	
  2974                           opt subtitle "HI-TECH Software Omniscient Code Generator (Lite mode) build 49521"
  2975  0049  3000               	movlw	(0)
  2976  004A  291F               	goto	l121
  2977                           opt subtitle "HI-TECH Software Omniscient Code Generator (Lite mode) build 49521"
  2978  004B                     l1359:	
  2979  004B  291F               	goto	l121
  2980                           opt subtitle "HI-TECH Software Omniscient Code Generator (Lite mode) build 49521"
  2981  004C                     l123:	
  2982                           opt subtitle "HI-TECH Software Omniscient Code Generator (Lite mode) build 49521"
  2983                           
  2984  004C                     l1361:	
  2985                           opt subtitle "HI-TECH Software Omniscient Code Generator (Lite mode) build 49521"
  2986  004C  0021               	movlb 1	; select bank1
  2987  004D  0826               	movf	1+(_pkt)^080h+05h,w
  2988  004E  0020               	movlb 0	; select bank0
  2989  004F  01BE               	clrf	(process_packet@pseq+1)
  2990  0050  07BE               	addwf	(process_packet@pseq+1)
  2991  0051  0021               	movlb 1	; select bank1
  2992  0052  0825               	movf	0+(_pkt)^080h+05h,w
  2993  0053  0020               	movlb 0	; select bank0
  2994  0054  01BD               	clrf	(process_packet@pseq)
  2995  0055  07BD               	addwf	(process_packet@pseq)
  2996                           opt subtitle "HI-TECH Software Omniscient Code Generator (Lite mode) build 49521"
  2997                           
  2998                           opt pagewidth 120
  2999  0056  0021               	movlb 1	; select bank1
  3000  0057  0824               	movf	1+(_pkt)^080h+03h,w
  3001  0058  0020               	movlb 0	; select bank0
  3002  0059  01B4               	clrf	(process_packet@param+1)
  3003  005A  07B4               	addwf	(process_packet@param+1)
  3004  005B  0021               	movlb 1	; select bank1
  3005  005C  0823               	movf	0+(_pkt)^080h+03h,w
  3006  005D  0020               	movlb 0	; select bank0
  3007  005E  01B3               	clrf	(process_packet@param)
  3008  005F  07B3               	addwf	(process_packet@param)
  3009                           opt subtitle "HI-TECH Software Omniscient Code Generator (Lite mode) build 49521"
  3010                           
  3011                           opt pagewidth 120
  3012  0060                     l1363:	
  3013                           opt subtitle "HI-TECH Software Omniscient Code Generator (Lite mode) build 49521"
  3014  0060  0021               	movlb 1	; select bank1
  3015  0061  0822               	movf	0+(_pkt)^080h+02h,w
  3016  0062  0020               	movlb 0	; select bank0
  3017  0063  00AE               	movwf	(??_process_packet+0)+0
  3018  0064  082E               	movf	(??_process_packet+0)+0,w
  3019  0065  00C1               	movwf	(_cmd)
  3020                           opt subtitle "HI-TECH Software Omniscient Code Generator (Lite mode) build 49521"
  3021                           
  3022  0066                     l1365:	
  3023                           opt subtitle "HI-TECH Software Omniscient Code Generator (Lite mode) build 49521"
  3024  0066  30C1               	movlw	(0C1h)
  3025  0067  00AE               	movwf	(??_process_packet+0)+0
  3026  0068  082E               	movf	(??_process_packet+0)+0,w
  3027  0069  00B5               	movwf	(process_packet@acknak)
  3028                           opt subtitle "HI-TECH Software Omniscient Code Generator (Lite mode) build 49521"
  3029                           
  3030  006A  28FB               	goto	l1409
  3031                           opt subtitle "HI-TECH Software Omniscient Code Generator (Lite mode) build 49521"
  3032                           
  3033                           opt pagewidth 120
  3034  006B                     l125:	
  3035                           opt subtitle "HI-TECH Software Omniscient Code Generator (Lite mode) build 49521"
  3036                           
  3037  006B                     l1367:	
  3038                           opt subtitle "HI-TECH Software Omniscient Code Generator (Lite mode) build 49521"
  3039  006B  01BF               	clrf	(process_packet@seqno)
  3040  006C  01C0               	clrf	(process_packet@seqno+1)
  3041                           opt subtitle "HI-TECH Software Omniscient Code Generator (Lite mode) build 49521"
  3042                           
  3043  006D                     l1369:	
  3044                           opt subtitle "HI-TECH Software Omniscient Code Generator (Lite mode) build 49521"
  3045  006D  10FC               	bcf	(process_packet@write_en/8),(process_packet@write_en)&7
  3046                           opt subtitle "HI-TECH Software Omniscient Code Generator (Lite mode) build 49521"
  3047                           
  3048  006E                     l1371:	
  3049                           opt subtitle "HI-TECH Software Omniscient Code Generator (Lite mode) build 49521"
  3050  006E  01B5               	clrf	(process_packet@acknak)
  3051  006F  0AB5               	incf	(process_packet@acknak),f
  3052                           opt subtitle "HI-TECH Software Omniscient Code Generator (Lite mode) build 49521"
  3053                           
  3054  0070  2912               	goto	l1411
  3055                           opt subtitle "HI-TECH Software Omniscient Code Generator (Lite mode) build 49521"
  3056                           
  3057                           opt pagewidth 120
  3058  0071                     l127:	
  3059                           opt subtitle "HI-TECH Software Omniscient Code Generator (Lite mode) build 49521"
  3060                           
  3061  0071  14FC               	bsf	(process_packet@write_en/8),(process_packet@write_en)&7
  3062                           opt subtitle "HI-TECH Software Omniscient Code Generator (Lite mode) build 49521"
  3063                           
  3064  0072  2912               	goto	l1411
  3065                           opt subtitle "HI-TECH Software Omniscient Code Generator (Lite mode) build 49521"
  3066                           
  3067                           opt pagewidth 120
  3068  0073                     l128:	
  3069                           opt subtitle "HI-TECH Software Omniscient Code Generator (Lite mode) build 49521"
  3070                           
  3071  0073  1CFC               	btfss	(process_packet@write_en/8),(process_packet@write_en)&7
  3072  0074  2876               	goto	u821
  3073  0075  2877               	goto	u820
  3074  0076                     u821:
  3075  0076  2898               	goto	l1379
  3076  0077                     u820:
  3077                           opt subtitle "HI-TECH Software Omniscient Code Generator (Lite mode) build 49521"
  3078  0077                     l1373:	
  3079  0077  083E               	movf	(process_packet@pseq+1),w
  3080  0078  0640               	xorwf	(process_packet@seqno+1),w
  3081  0079  1D03               	skipz
  3082  007A  287D               	goto	u835
  3083  007B  083D               	movf	(process_packet@pseq),w
  3084  007C  063F               	xorwf	(process_packet@seqno),w
  3085  007D                     u835:
  3086                           opt subtitle "HI-TECH Software Omniscient Code Generator (Lite mode) build 49521"
  3087  007D  1D03               	skipz
  3088  007E  2880               	goto	u831
  3089  007F  2881               	goto	u830
  3090  0080                     u831:
  3091  0080  2898               	goto	l1379
  3092  0081                     u830:
  3093                           opt subtitle "HI-TECH Software Omniscient Code Generator (Lite mode) build 49521"
  3094  0081                     l1375:	
  3095  0081  3008               	movlw	high(0800h)
  3096  0082  0234               	subwf	(process_packet@param+1),w
  3097  0083  3000               	movlw	low(0800h)
  3098  0084  1903               	skipnz
  3099  0085  0233               	subwf	(process_packet@param),w
  3100  0086  1C03               	skipc
  3101  0087  2889               	goto	u841
  3102  0088  288A               	goto	u840
  3103  0089                     u841:
  3104  0089  2898               	goto	l1379
  3105  008A                     u840:
  3106                           opt subtitle "HI-TECH Software Omniscient Code Generator (Lite mode) build 49521"
  3107                           
  3108  008A                     l1377:	
  3109                           opt subtitle "HI-TECH Software Omniscient Code Generator (Lite mode) build 49521"
  3110  008A  0834               	movf	(process_packet@param+1),w
  3111  008B  01F2               	clrf	(?_flash_write_row+1)
  3112  008C  07F2               	addwf	(?_flash_write_row+1)
  3113  008D  0833               	movf	(process_packet@param),w
  3114  008E  01F1               	clrf	(?_flash_write_row)
  3115  008F  07F1               	addwf	(?_flash_write_row)
  3116                           opt subtitle "HI-TECH Software Omniscient Code Generator (Lite mode) build 49521"
  3117  0090  30A7               	movlw	(_pkt+07h)&0ffh
  3118  0091  00AE               	movwf	(??_process_packet+0)+0
  3119  0092  082E               	movf	(??_process_packet+0)+0,w
  3120  0093  00F3               	movwf	0+(?_flash_write_row)+02h
  3121  0094  3183  2308  3180   	fcall	_flash_write_row
  3122                           opt subtitle "HI-TECH Software Omniscient Code Generator (Lite mode) build 49521"
  3123                           
  3124  0097  2912               	goto	l1411
  3125                           opt subtitle "HI-TECH Software Omniscient Code Generator (Lite mode) build 49521"
  3126                           
  3127  0098                     l129:	
  3128                           opt subtitle "HI-TECH Software Omniscient Code Generator (Lite mode) build 49521"
  3129                           
  3130  0098                     l1379:	
  3131                           opt subtitle "HI-TECH Software Omniscient Code Generator (Lite mode) build 49521"
  3132                           
  3133  0098  3081               	movlw	(081h)
  3134  0099  0020               	movlb 0	; select bank0
  3135  009A  00AE               	movwf	(??_process_packet+0)+0
  3136  009B  082E               	movf	(??_process_packet+0)+0,w
  3137  009C  00B5               	movwf	(process_packet@acknak)
  3138  009D  2912               	goto	l1411
  3139                           opt subtitle "HI-TECH Software Omniscient Code Generator (Lite mode) build 49521"
  3140  009E                     l130:	
  3141                           opt subtitle "HI-TECH Software Omniscient Code Generator (Lite mode) build 49521"
  3142                           
  3143  009E  2912               	goto	l1411
  3144                           opt subtitle "HI-TECH Software Omniscient Code Generator (Lite mode) build 49521"
  3145                           
  3146                           opt pagewidth 120
  3147  009F                     l131:	
  3148                           opt subtitle "HI-TECH Software Omniscient Code Generator (Lite mode) build 49521"
  3149                           
  3150  009F  1CFC               	btfss	(process_packet@write_en/8),(process_packet@write_en)&7
  3151  00A0  28A2               	goto	u851
  3152  00A1  28A3               	goto	u850
  3153  00A2                     u851:
  3154  00A2  28D4               	goto	l1395
  3155  00A3                     u850:
  3156                           opt subtitle "HI-TECH Software Omniscient Code Generator (Lite mode) build 49521"
  3157  00A3                     l1381:	
  3158  00A3  083E               	movf	(process_packet@pseq+1),w
  3159  00A4  0640               	xorwf	(process_packet@seqno+1),w
  3160  00A5  1D03               	skipz
  3161  00A6  28A9               	goto	u865
  3162  00A7  083D               	movf	(process_packet@pseq),w
  3163  00A8  063F               	xorwf	(process_packet@seqno),w
  3164  00A9                     u865:
  3165                           opt subtitle "HI-TECH Software Omniscient Code Generator (Lite mode) build 49521"
  3166  00A9  1D03               	skipz
  3167  00AA  28AC               	goto	u861
  3168  00AB  28AD               	goto	u860
  3169  00AC                     u861:
  3170  00AC  28D4               	goto	l1395
  3171  00AD                     u860:
  3172                           opt subtitle "HI-TECH Software Omniscient Code Generator (Lite mode) build 49521"
  3173                           
  3174  00AD                     l1383:	
  3175                           opt subtitle "HI-TECH Software Omniscient Code Generator (Lite mode) build 49521"
  3176  00AD  0833               	movf	(process_packet@param),w
  3177  00AE  00AE               	movwf	(??_process_packet+0)+0
  3178  00AF  082E               	movf	(??_process_packet+0)+0,w
  3179  00B0  00B2               	movwf	(process_packet@eeaddress)
  3180                           opt subtitle "HI-TECH Software Omniscient Code Generator (Lite mode) build 49521"
  3181                           
  3182  00B1                     l1385:	
  3183                           opt subtitle "HI-TECH Software Omniscient Code Generator (Lite mode) build 49521"
  3184  00B1  01B6               	clrf	(process_packet@i)
  3185  00B2  0836               	movf	(process_packet@i),w
  3186  00B3  3A40               	xorlw	040h&0ffh
  3187  00B4  1D03               	skipz
  3188  00B5  28B7               	goto	u871
  3189  00B6  28B8               	goto	u870
  3190  00B7                     u871:
  3191  00B7  28BA               	goto	l1389
  3192  00B8                     u870:
  3193  00B8  2912               	goto	l1411
  3194                           opt subtitle "HI-TECH Software Omniscient Code Generator (Lite mode) build 49521"
  3195  00B9                     l1387:	
  3196  00B9  2912               	goto	l1411
  3197                           opt subtitle "HI-TECH Software Omniscient Code Generator (Lite mode) build 49521"
  3198                           
  3199  00BA                     l133:	
  3200                           opt subtitle "HI-TECH Software Omniscient Code Generator (Lite mode) build 49521"
  3201  00BA                     l1389:	
  3202                           opt subtitle "HI-TECH Software Omniscient Code Generator (Lite mode) build 49521"
  3203  00BA  0836               	movf	(process_packet@i),w
  3204  00BB  3EA7               	addlw	_pkt+07h&0ffh
  3205  00BC  0086               	movwf	fsr1l
  3206  00BD  0187               	clrf fsr1h	
  3207                           opt subtitle "HI-TECH Software Omniscient Code Generator (Lite mode) build 49521"
  3208  00BE  0801               	movf	indf1,w
  3209  00BF  00AE               	movwf	(??_process_packet+0)+0
  3210  00C0  082E               	movf	(??_process_packet+0)+0,w
  3211  00C1  00F1               	movwf	(?_eeprom_write)
  3212  00C2  0832               	movf	(process_packet@eeaddress),w
  3213  00C3  0736               	addwf	(process_packet@i),w
  3214  00C4  3184  245C  3180   	fcall	_eeprom_write
  3215                           opt subtitle "HI-TECH Software Omniscient Code Generator (Lite mode) build 49521"
  3216                           
  3217  00C7                     l1391:	
  3218  00C7  3001               	movlw	(01h)
  3219  00C8  0020               	movlb 0	; select bank0
  3220  00C9  00AE               	movwf	(??_process_packet+0)+0
  3221  00CA  082E               	movf	(??_process_packet+0)+0,w
  3222  00CB  07B6               	addwf	(process_packet@i),f
  3223                           opt subtitle "HI-TECH Software Omniscient Code Generator (Lite mode) build 49521"
  3224  00CC                     l1393:	
  3225  00CC  0836               	movf	(process_packet@i),w
  3226  00CD  3A40               	xorlw	040h&0ffh
  3227  00CE  1D03               	skipz
  3228  00CF  28D1               	goto	u881
  3229  00D0  28D2               	goto	u880
  3230  00D1                     u881:
  3231  00D1  28BA               	goto	l1389
  3232  00D2                     u880:
  3233  00D2  2912               	goto	l1411
  3234                           opt subtitle "HI-TECH Software Omniscient Code Generator (Lite mode) build 49521"
  3235  00D3                     l134:	
  3236                           opt subtitle "HI-TECH Software Omniscient Code Generator (Lite mode) build 49521"
  3237                           
  3238  00D3  2912               	goto	l1411
  3239                           opt subtitle "HI-TECH Software Omniscient Code Generator (Lite mode) build 49521"
  3240                           
  3241  00D4                     l132:	
  3242                           opt subtitle "HI-TECH Software Omniscient Code Generator (Lite mode) build 49521"
  3243                           
  3244  00D4                     l1395:	
  3245                           opt subtitle "HI-TECH Software Omniscient Code Generator (Lite mode) build 49521"
  3246                           
  3247  00D4  3081               	movlw	(081h)
  3248  00D5  00AE               	movwf	(??_process_packet+0)+0
  3249  00D6  082E               	movf	(??_process_packet+0)+0,w
  3250  00D7  00B5               	movwf	(process_packet@acknak)
  3251  00D8  2912               	goto	l1411
  3252                           opt subtitle "HI-TECH Software Omniscient Code Generator (Lite mode) build 49521"
  3253  00D9                     l135:	
  3254                           opt subtitle "HI-TECH Software Omniscient Code Generator (Lite mode) build 49521"
  3255                           
  3256  00D9  2912               	goto	l1411
  3257                           opt subtitle "HI-TECH Software Omniscient Code Generator (Lite mode) build 49521"
  3258                           
  3259                           opt pagewidth 120
  3260  00DA                     l136:	
  3261                           opt subtitle "HI-TECH Software Omniscient Code Generator (Lite mode) build 49521"
  3262                           
  3263  00DA                     l1397:	
  3264                           opt subtitle "HI-TECH Software Omniscient Code Generator (Lite mode) build 49521"
  3265  00DA  3182  2276  3180   	fcall	_check_appspace
  3266  00DD  3A00               	xorlw	0&0ffh
  3267  00DE  1903               	skipnz
  3268  00DF  28E1               	goto	u891
  3269  00E0  28E2               	goto	u890
  3270  00E1                     u891:
  3271  00E1  28E8               	goto	l1401
  3272  00E2                     u890:
  3273                           opt subtitle "HI-TECH Software Omniscient Code Generator (Lite mode) build 49521"
  3274                           
  3275  00E2                     l1399:	
  3276                           opt subtitle "HI-TECH Software Omniscient Code Generator (Lite mode) build 49521"
  3277  00E2  3002               	movlw	(02h)
  3278  00E3  0020               	movlb 0	; select bank0
  3279  00E4  00AE               	movwf	(??_process_packet+0)+0
  3280  00E5  082E               	movf	(??_process_packet+0)+0,w
  3281  00E6  00B5               	movwf	(process_packet@acknak)
  3282  00E7  2912               	goto	l1411
  3283                           opt subtitle "HI-TECH Software Omniscient Code Generator (Lite mode) build 49521"
  3284                           
  3285  00E8                     l137:	
  3286                           opt subtitle "HI-TECH Software Omniscient Code Generator (Lite mode) build 49521"
  3287                           
  3288  00E8                     l1401:	
  3289                           opt subtitle "HI-TECH Software Omniscient Code Generator (Lite mode) build 49521"
  3290                           
  3291  00E8  30C1               	movlw	(0C1h)
  3292  00E9  0020               	movlb 0	; select bank0
  3293  00EA  00AE               	movwf	(??_process_packet+0)+0
  3294  00EB  082E               	movf	(??_process_packet+0)+0,w
  3295  00EC  00B5               	movwf	(process_packet@acknak)
  3296  00ED  2912               	goto	l1411
  3297                           opt subtitle "HI-TECH Software Omniscient Code Generator (Lite mode) build 49521"
  3298  00EE                     l138:	
  3299                           opt subtitle "HI-TECH Software Omniscient Code Generator (Lite mode) build 49521"
  3300                           
  3301  00EE  2912               	goto	l1411
  3302                           opt subtitle "HI-TECH Software Omniscient Code Generator (Lite mode) build 49521"
  3303                           
  3304                           opt pagewidth 120
  3305  00EF                     l139:	
  3306  00EF  28F0               	goto	l1403
  3307                           opt subtitle "HI-TECH Software Omniscient Code Generator (Lite mode) build 49521"
  3308                           
  3309  00F0                     l140:	
  3310                           opt subtitle "HI-TECH Software Omniscient Code Generator (Lite mode) build 49521"
  3311                           
  3312  00F0                     l1403:	
  3313                           opt subtitle "HI-TECH Software Omniscient Code Generator (Lite mode) build 49521"
  3314                           
  3315  00F0  3003               	movlw	(03h)
  3316  00F1  00AE               	movwf	(??_process_packet+0)+0
  3317  00F2  082E               	movf	(??_process_packet+0)+0,w
  3318  00F3  00B5               	movwf	(process_packet@acknak)
  3319                           opt subtitle "HI-TECH Software Omniscient Code Generator (Lite mode) build 49521"
  3320                           
  3321  00F4  2912               	goto	l1411
  3322                           opt subtitle "HI-TECH Software Omniscient Code Generator (Lite mode) build 49521"
  3323                           
  3324                           opt pagewidth 120
  3325  00F5                     l141:	
  3326                           opt subtitle "HI-TECH Software Omniscient Code Generator (Lite mode) build 49521"
  3327                           
  3328  00F5                     l1405:	
  3329                           opt subtitle "HI-TECH Software Omniscient Code Generator (Lite mode) build 49521"
  3330  00F5  3081               	movlw	(081h)
  3331  00F6  00AE               	movwf	(??_process_packet+0)+0
  3332  00F7  082E               	movf	(??_process_packet+0)+0,w
  3333  00F8  00B5               	movwf	(process_packet@acknak)
  3334                           opt subtitle "HI-TECH Software Omniscient Code Generator (Lite mode) build 49521"
  3335                           
  3336  00F9  2912               	goto	l1411
  3337                           opt subtitle "HI-TECH Software Omniscient Code Generator (Lite mode) build 49521"
  3338                           
  3339  00FA                     l1407:	
  3340                           opt subtitle "HI-TECH Software Omniscient Code Generator (Lite mode) build 49521"
  3341  00FA  2912               	goto	l1411
  3342                           opt subtitle "HI-TECH Software Omniscient Code Generator (Lite mode) build 49521"
  3343                           
  3344  00FB                     l124:	
  3345                           opt subtitle "HI-TECH Software Omniscient Code Generator (Lite mode) build 49521"
  3346  00FB                     l1409:	
  3347  00FB  0841               	movf	(_cmd),w
  3348                           opt subtitle "HI-TECH Software Omniscient Code Generator (Lite mode) build 49521"
  3349                           
  3350                           opt pagewidth 120
  3351                           
  3352                           	opt lm
  3353                           
  3354                           	processor	16F1825
  3355                           clrc	macro
  3356                           	bcf	3,0
  3357                           	endm
  3358                           clrz	macro
  3359                           	bcf	3,2
  3360  00FC  3A00               	xorlw	0^0	; case 0
  3361  00FD  1903               	skipnz
  3362  00FE  286B               	goto	l1367
  3363  00FF  3A08               	xorlw	8^0	; case 8
  3364  0100  1903               	skipnz
  3365  0101  28DA               	goto	l1397
  3366  0102  3A18               	xorlw	16^8	; case 16
  3367  0103  1903               	skipnz
  3368  0104  2871               	goto	l127
  3369  0105  3A50               	xorlw	64^16	; case 64
  3370  0106  1903               	skipnz
  3371  0107  2873               	goto	l128
  3372  0108  3A15               	xorlw	85^64	; case 85
  3373  0109  1903               	skipnz
  3374  010A  28F0               	goto	l1403
  3375  010B  3AF0               	xorlw	165^85	; case 165
  3376  010C  1903               	skipnz
  3377  010D  289F               	goto	l131
  3378  010E  3A0F               	xorlw	170^165	; case 170
  3379  010F  1903               	skipnz
  3380  0110  28F0               	goto	l1403
  3381  0111  28F5               	goto	l1405
  3382                           opt subtitle "HI-TECH Software Omniscient Code Generator (Lite mode) build 49521"
  3383                           
  3384                           opt pagewidth 120
  3385                           
  3386  0112                     l126:	
  3387                           opt subtitle "HI-TECH Software Omniscient Code Generator (Lite mode) build 49521"
  3388                           
  3389  0112                     l1411:	
  3390                           opt subtitle "HI-TECH Software Omniscient Code Generator (Lite mode) build 49521"
  3391  0112  0020               	movlb 0	; select bank0
  3392  0113  0835               	movf	(process_packet@acknak),w
  3393  0114  3AC1               	xorlw	0C1h&0ffh
  3394  0115  1D03               	skipz
  3395  0116  2918               	goto	u901
  3396  0117  2919               	goto	u900
  3397  0118                     u901:
  3398  0118  291D               	goto	l142
  3399  0119                     u900:
  3400                           opt subtitle "HI-TECH Software Omniscient Code Generator (Lite mode) build 49521"
  3401                           
  3402  0119                     l1413:	
  3403                           opt subtitle "HI-TECH Software Omniscient Code Generator (Lite mode) build 49521"
  3404  0119  3001               	movlw	low(01h)
  3405  011A  07BF               	addwf	(process_packet@seqno),f
  3406  011B  3000               	movlw	high(01h)
  3407  011C  3DC0               	addwfc	(process_packet@seqno+1),f
  3408                           opt subtitle "HI-TECH Software Omniscient Code Generator (Lite mode) build 49521"
  3409                           
  3410  011D                     l142:	
  3411                           opt subtitle "HI-TECH Software Omniscient Code Generator (Lite mode) build 49521"
  3412                           
  3413                           opt pagewidth 120
  3414  011D  0835               	movf	(process_packet@acknak),w
  3415  011E  291F               	goto	l121
  3416                           opt subtitle "HI-TECH Software Omniscient Code Generator (Lite mode) build 49521"
  3417  011F                     l1415:	
  3418                           opt subtitle "HI-TECH Software Omniscient Code Generator (Lite mode) build 49521"
  3419                           
  3420  011F                     l121:	
  3421  011F  0008               	return
  3422                           opt subtitle "HI-TECH Software Omniscient Code Generator (Lite mode) build 49521"
  3423                           
  3424  0120                     	__end_of_process_packet:
  3425                           opt subtitle "HI-TECH Software Omniscient Code Generator (Lite mode) build 49521"
  3426                           
  3427                           opt pagewidth 120
  3428                           
  3429                           	opt lm
  3430                           
  3431                           	processor	16F1825
  3432                           clrc	macro
  3433                           	bcf	3,0
  3434                           	endm
  3435                           clrz	macro
  3436                           	bcf	3,2
  3437                           	endm
  3438                           setc	macro
  3439                           	bsf	3,0
  3440                           	endm
  3441                           setz	macro
  3442                           	bsf	3,2
  3443                           	endm
  3444                           skipc	macro
  3445                           	btfss	3,0
  3446                           	endm
  3447                           skipz	macro
  3448                           	btfss	3,2
  3449                           	endm
  3450                           skipnc	macro
  3451                           	btfsc	3,0
  3452                           	endm
  3453                           skipnz	macro
  3454                           	btfsc	3,2
  3455                           	endm
  3456                           indf	equ	0
  3457                           indf0	equ	0
  3458                           indf1	equ	1
  3459                           pc	equ	2
  3460                           pcl	equ	2
  3461                           status	equ	3
  3462                           fsr0l	equ	4
  3463                           fsr0h	equ	5
  3464                           fsr1l	equ	6
  3465  0276                     __ptext540:	;psect for function _check_appspace
  3466                           opt subtitle "HI-TECH Software Omniscient Code Generator (Lite mode) build 49521"
  3467                           
  3468                           opt pagewidth 120
  3469                           
  3470  0092                     	__size_of_check_appspace	equ	__end_of_check_appspace-_check_appspace
  3471                           opt subtitle "HI-TECH Software Omniscient Code Generator (Lite mode) build 49521"
  3472  0276                     _check_appspace:	
  3473                           opt subtitle "HI-TECH Software Omniscient Code Generator (Lite mode) build 49521"
  3474                           
  3475                           opt pagewidth 120
  3476                           
  3477  0276                     l1279:	
  3478                           opt subtitle "HI-TECH Software Omniscient Code Generator (Lite mode) build 49521"
  3479                           
  3480  0276  30E0               	movlw	low(01FE0h)
  3481  0277  00F1               	movwf	(?_flash_read_row)
  3482  0278  301F               	movlw	high(01FE0h)
  3483  0279  00F2               	movwf	((?_flash_read_row))+1
  3484  027A  30A7               	movlw	(_pkt+07h)&0ffh
  3485  027B  0020               	movlb 0	; select bank0
  3486  027C  00A0               	movwf	(??_check_appspace+0)+0
  3487  027D  0820               	movf	(??_check_appspace+0)+0,w
  3488  027E  00F3               	movwf	0+(?_flash_read_row)+02h
  3489  027F  3184  2420  3182   	fcall	_flash_read_row
  3490                           opt subtitle "HI-TECH Software Omniscient Code Generator (Lite mode) build 49521"
  3491                           
  3492  0282                     l1281:	
  3493                           opt subtitle "HI-TECH Software Omniscient Code Generator (Lite mode) build 49521"
  3494  0282  0021               	movlb 1	; select bank1
  3495  0283  0859               	movf	0+(_pkt)^080h+039h,w
  3496  0284  3A55               	xorlw	055h&0ffh
  3497  0285  1D03               	skipz
  3498  0286  2A88               	goto	u731
  3499  0287  2A89               	goto	u730
  3500  0288                     u731:
  3501  0288  2A90               	goto	l1285
  3502  0289                     u730:
  3503                           opt subtitle "HI-TECH Software Omniscient Code Generator (Lite mode) build 49521"
  3504  0289                     l1283:	
  3505  0289  0857               	movf	0+(_pkt)^080h+037h,w
  3506  028A  3AAA               	xorlw	0AAh&0ffh
  3507  028B  1903               	skipnz
  3508  028C  2A8E               	goto	u741
  3509  028D  2A8F               	goto	u740
  3510  028E                     u741:
  3511  028E  2A93               	goto	l1289
  3512  028F                     u740:
  3513  028F  2A90               	goto	l1285
  3514                           opt subtitle "HI-TECH Software Omniscient Code Generator (Lite mode) build 49521"
  3515  0290                     l107:	
  3516                           opt subtitle "HI-TECH Software Omniscient Code Generator (Lite mode) build 49521"
  3517                           
  3518  0290                     l1285:	
  3519                           opt subtitle "HI-TECH Software Omniscient Code Generator (Lite mode) build 49521"
  3520  0290  3001               	movlw	(01h)
  3521  0291  2B07               	goto	l108
  3522                           opt subtitle "HI-TECH Software Omniscient Code Generator (Lite mode) build 49521"
  3523  0292                     l1287:	
  3524  0292  2B07               	goto	l108
  3525                           opt subtitle "HI-TECH Software Omniscient Code Generator (Lite mode) build 49521"
  3526  0293                     l105:	
  3527                           opt subtitle "HI-TECH Software Omniscient Code Generator (Lite mode) build 49521"
  3528                           
  3529  0293                     l1289:	
  3530                           opt subtitle "HI-TECH Software Omniscient Code Generator (Lite mode) build 49521"
  3531  0293  0863               	movf	0+(_pkt)^080h+043h,w
  3532  0294  0020               	movlb 0	; select bank0
  3533  0295  00A0               	movwf	(??_check_appspace+0)+0+0
  3534  0296  01A1               	clrf	(??_check_appspace+0)+0+1
  3535  0297  0021               	movlb 1	; select bank1
  3536  0298  0865               	movf	0+(_pkt)^080h+045h,w
  3537  0299  0020               	movlb 0	; select bank0
  3538  029A  00A2               	movwf	(??_check_appspace+2)+0+0
  3539  029B  01A3               	clrf	(??_check_appspace+2)+0+1
  3540  029C  0822               	movf	(??_check_appspace+2)+0,w
  3541  029D  00A3               	movwf	(??_check_appspace+2)+1
  3542  029E  01A2               	clrf	(??_check_appspace+2)+0
  3543  029F  0820               	movf	0+(??_check_appspace+0)+0,w
  3544  02A0  0422               	iorwf	0+(??_check_appspace+2)+0,w
  3545  02A1  00A4               	movwf	(check_appspace@appcrc16)
  3546  02A2  0821               	movf	1+(??_check_appspace+0)+0,w
  3547  02A3  0423               	iorwf	1+(??_check_appspace+2)+0,w
  3548  02A4  00A5               	movwf	1+(check_appspace@appcrc16)
  3549                           opt subtitle "HI-TECH Software Omniscient Code Generator (Lite mode) build 49521"
  3550                           
  3551  02A5  0021               	movlb 1	; select bank1
  3552  02A6  085B               	movf	0+(_pkt)^080h+03Bh,w
  3553  02A7  0020               	movlb 0	; select bank0
  3554  02A8  00A0               	movwf	(??_check_appspace+0)+0+0
  3555  02A9  01A1               	clrf	(??_check_appspace+0)+0+1
  3556  02AA  0021               	movlb 1	; select bank1
  3557  02AB  085D               	movf	0+(_pkt)^080h+03Dh,w
  3558  02AC  0020               	movlb 0	; select bank0
  3559  02AD  00A2               	movwf	(??_check_appspace+2)+0+0
  3560  02AE  01A3               	clrf	(??_check_appspace+2)+0+1
  3561  02AF  0822               	movf	(??_check_appspace+2)+0,w
  3562  02B0  00A3               	movwf	(??_check_appspace+2)+1
  3563  02B1  01A2               	clrf	(??_check_appspace+2)+0
  3564  02B2  0820               	movf	0+(??_check_appspace+0)+0,w
  3565  02B3  0422               	iorwf	0+(??_check_appspace+2)+0,w
  3566  02B4  00A6               	movwf	(check_appspace@rowsused)
  3567  02B5  0821               	movf	1+(??_check_appspace+0)+0,w
  3568  02B6  0423               	iorwf	1+(??_check_appspace+2)+0,w
  3569  02B7  00A7               	movwf	1+(check_appspace@rowsused)
  3570                           opt subtitle "HI-TECH Software Omniscient Code Generator (Lite mode) build 49521"
  3571                           
  3572  02B8                     l1291:	
  3573                           opt subtitle "HI-TECH Software Omniscient Code Generator (Lite mode) build 49521"
  3574  02B8  01AC               	clrf	(check_appspace@crc16)
  3575  02B9  01AD               	clrf	(check_appspace@crc16+1)
  3576                           opt subtitle "HI-TECH Software Omniscient Code Generator (Lite mode) build 49521"
  3577                           
  3578  02BA                     l1293:	
  3579                           opt subtitle "HI-TECH Software Omniscient Code Generator (Lite mode) build 49521"
  3580  02BA  3000               	movlw	low(0800h)
  3581  02BB  00A8               	movwf	(check_appspace@pmaddr)
  3582  02BC  3008               	movlw	high(0800h)
  3583  02BD  00A9               	movwf	((check_appspace@pmaddr))+1
  3584                           opt subtitle "HI-TECH Software Omniscient Code Generator (Lite mode) build 49521"
  3585                           
  3586  02BE                     l1295:	
  3587                           opt subtitle "HI-TECH Software Omniscient Code Generator (Lite mode) build 49521"
  3588  02BE  01AA               	clrf	(check_appspace@i)
  3589  02BF  01AB               	clrf	(check_appspace@i+1)
  3590  02C0  2AF2               	goto	l1303
  3591                           opt subtitle "HI-TECH Software Omniscient Code Generator (Lite mode) build 49521"
  3592  02C1                     l110:	
  3593                           opt subtitle "HI-TECH Software Omniscient Code Generator (Lite mode) build 49521"
  3594                           
  3595  02C1                     l1297:	
  3596                           opt subtitle "HI-TECH Software Omniscient Code Generator (Lite mode) build 49521"
  3597  02C1  0829               	movf	(check_appspace@pmaddr+1),w
  3598  02C2  01F2               	clrf	(?_flash_read_row+1)
  3599  02C3  07F2               	addwf	(?_flash_read_row+1)
  3600  02C4  0828               	movf	(check_appspace@pmaddr),w
  3601  02C5  01F1               	clrf	(?_flash_read_row)
  3602  02C6  07F1               	addwf	(?_flash_read_row)
  3603                           opt subtitle "HI-TECH Software Omniscient Code Generator (Lite mode) build 49521"
  3604  02C7  30A0               	movlw	(_pkt)&0ffh
  3605  02C8  00A0               	movwf	(??_check_appspace+0)+0
  3606  02C9  0820               	movf	(??_check_appspace+0)+0,w
  3607  02CA  00F3               	movwf	0+(?_flash_read_row)+02h
  3608  02CB  3184  2420  3182   	fcall	_flash_read_row
  3609                           opt subtitle "HI-TECH Software Omniscient Code Generator (Lite mode) build 49521"
  3610                           
  3611  02CE  0020               	movlb 0	; select bank0
  3612  02CF  082D               	movf	(check_appspace@crc16+1),w
  3613  02D0  01F2               	clrf	(?_calc_crc16+1)
  3614  02D1  07F2               	addwf	(?_calc_crc16+1)
  3615  02D2  082C               	movf	(check_appspace@crc16),w
  3616  02D3  01F1               	clrf	(?_calc_crc16)
  3617  02D4  07F1               	addwf	(?_calc_crc16)
  3618                           opt subtitle "HI-TECH Software Omniscient Code Generator (Lite mode) build 49521"
  3619  02D5  30A0               	movlw	(_pkt)&0ffh
  3620  02D6  00A0               	movwf	(??_check_appspace+0)+0
  3621  02D7  0820               	movf	(??_check_appspace+0)+0,w
  3622  02D8  00F3               	movwf	0+(?_calc_crc16)+02h
  3623  02D9  3040               	movlw	(040h)
  3624  02DA  00A1               	movwf	(??_check_appspace+1)+0
  3625  02DB  0821               	movf	(??_check_appspace+1)+0,w
  3626  02DC  00F4               	movwf	0+(?_calc_crc16)+03h
  3627  02DD  3183  23D1  3182   	fcall	_calc_crc16
  3628  02E0  0872               	movf	(1+(?_calc_crc16)),w
  3629  02E1  0020               	movlb 0	; select bank0
  3630  02E2  01AD               	clrf	(check_appspace@crc16+1)
  3631  02E3  07AD               	addwf	(check_appspace@crc16+1)
  3632  02E4  0871               	movf	(0+(?_calc_crc16)),w
  3633  02E5  01AC               	clrf	(check_appspace@crc16)
  3634  02E6  07AC               	addwf	(check_appspace@crc16)
  3635                           opt subtitle "HI-TECH Software Omniscient Code Generator (Lite mode) build 49521"
  3636                           
  3637                           opt pagewidth 120
  3638  02E7                     l1299:	
  3639                           opt subtitle "HI-TECH Software Omniscient Code Generator (Lite mode) build 49521"
  3640  02E7  3020               	movlw	low(020h)
  3641  02E8  07A8               	addwf	(check_appspace@pmaddr),f
  3642  02E9  3000               	movlw	high(020h)
  3643  02EA  3DA9               	addwfc	(check_appspace@pmaddr+1),f
  3644                           opt subtitle "HI-TECH Software Omniscient Code Generator (Lite mode) build 49521"
  3645                           
  3646  02EB  0064               clrwdt ;# 
  3647                           opt subtitle "HI-TECH Software Omniscient Code Generator (Lite mode) build 49521"
  3648                           
  3649                           opt pagewidth 120
  3650  02EC                     l1301:	
  3651  02EC  3001               	movlw	low(01h)
  3652  02ED  0020               	movlb 0	; select bank0
  3653  02EE  07AA               	addwf	(check_appspace@i),f
  3654  02EF  3000               	movlw	high(01h)
  3655  02F0  3DAB               	addwfc	(check_appspace@i+1),f
  3656  02F1  2AF2               	goto	l1303
  3657                           opt subtitle "HI-TECH Software Omniscient Code Generator (Lite mode) build 49521"
  3658  02F2                     l109:	
  3659                           opt subtitle "HI-TECH Software Omniscient Code Generator (Lite mode) build 49521"
  3660  02F2                     l1303:	
  3661  02F2  0827               	movf	(check_appspace@rowsused+1),w
  3662  02F3  062B               	xorwf	(check_appspace@i+1),w
  3663  02F4  1D03               	skipz
  3664  02F5  2AF8               	goto	u755
  3665  02F6  0826               	movf	(check_appspace@rowsused),w
  3666  02F7  062A               	xorwf	(check_appspace@i),w
  3667  02F8                     u755:
  3668                           opt subtitle "HI-TECH Software Omniscient Code Generator (Lite mode) build 49521"
  3669  02F8  1D03               	skipz
  3670  02F9  2AFB               	goto	u751
  3671  02FA  2AFC               	goto	u750
  3672  02FB                     u751:
  3673  02FB  2AC1               	goto	l1297
  3674  02FC                     u750:
  3675  02FC  2AFD               	goto	l1305
  3676                           opt subtitle "HI-TECH Software Omniscient Code Generator (Lite mode) build 49521"
  3677  02FD                     l111:	
  3678                           opt subtitle "HI-TECH Software Omniscient Code Generator (Lite mode) build 49521"
  3679                           
  3680  02FD                     l1305:	
  3681                           opt subtitle "HI-TECH Software Omniscient Code Generator (Lite mode) build 49521"
  3682                           
  3683  02FD  082D               	movf	(check_appspace@crc16+1),w
  3684  02FE  0625               	xorwf	(check_appspace@appcrc16+1),w
  3685  02FF  1D03               	skipz
  3686  0300  2B03               	goto	u765
  3687  0301  082C               	movf	(check_appspace@crc16),w
  3688  0302  0624               	xorwf	(check_appspace@appcrc16),w
  3689  0303                     u765:
  3690                           opt subtitle "HI-TECH Software Omniscient Code Generator (Lite mode) build 49521"
  3691  0303  3000               	movlw	0
  3692  0304  1D03               	skipz
  3693  0305  3001               	movlw	1
  3694  0306  2B07               	goto	l108
  3695                           opt subtitle "HI-TECH Software Omniscient Code Generator (Lite mode) build 49521"
  3696  0307                     l1307:	
  3697                           opt subtitle "HI-TECH Software Omniscient Code Generator (Lite mode) build 49521"
  3698                           
  3699  0307                     l108:	
  3700  0307  0008               	return
  3701                           opt subtitle "HI-TECH Software Omniscient Code Generator (Lite mode) build 49521"
  3702                           
  3703  0308                     	__end_of_check_appspace:
  3704                           opt subtitle "HI-TECH Software Omniscient Code Generator (Lite mode) build 49521"
  3705                           
  3706                           opt pagewidth 120
  3707                           
  3708                           	opt lm
  3709                           
  3710                           	processor	16F1825
  3711                           clrc	macro
  3712                           	bcf	3,0
  3713                           	endm
  3714                           clrz	macro
  3715                           	bcf	3,2
  3716                           	endm
  3717                           setc	macro
  3718                           	bsf	3,0
  3719                           	endm
  3720                           setz	macro
  3721                           	bsf	3,2
  3722                           	endm
  3723                           skipc	macro
  3724                           	btfss	3,0
  3725                           	endm
  3726                           skipz	macro
  3727                           	btfss	3,2
  3728                           	endm
  3729                           skipnc	macro
  3730                           	btfsc	3,0
  3731                           	endm
  3732                           skipnz	macro
  3733                           	btfsc	3,2
  3734                           	endm
  3735                           indf	equ	0
  3736                           indf0	equ	0
  3737                           indf1	equ	1
  3738                           pc	equ	2
  3739                           pcl	equ	2
  3740                           status	equ	3
  3741                           fsr0l	equ	4
  3742                           fsr0h	equ	5
  3743                           fsr1l	equ	6
  3744                           fsr1h	equ	7
  3745  03D1                     __ptext541:	;psect for function _calc_crc16
  3746                           opt subtitle "HI-TECH Software Omniscient Code Generator (Lite mode) build 49521"
  3747                           
  3748                           opt pagewidth 120
  3749                           
  3750  004F                     	__size_of_calc_crc16	equ	__end_of_calc_crc16-_calc_crc16
  3751                           opt subtitle "HI-TECH Software Omniscient Code Generator (Lite mode) build 49521"
  3752  03D1                     _calc_crc16:	
  3753                           opt subtitle "HI-TECH Software Omniscient Code Generator (Lite mode) build 49521"
  3754                           
  3755                           opt pagewidth 120
  3756                           
  3757  03D1                     l1153:	
  3758                           opt subtitle "HI-TECH Software Omniscient Code Generator (Lite mode) build 49521"
  3759                           
  3760                           opt pagewidth 120
  3761                           
  3762                           	opt lm
  3763                           
  3764                           	processor	16F1825
  3765                           clrc	macro
  3766                           	bcf	3,0
  3767                           	endm
  3768  03D1  0872               	movf	(calc_crc16@crcin+1),w
  3769  03D2  01FA               	clrf	(calc_crc16@crc+1)
  3770  03D3  07FA               	addwf	(calc_crc16@crc+1)
  3771  03D4  0871               	movf	(calc_crc16@crcin),w
  3772  03D5  01F9               	clrf	(calc_crc16@crc)
  3773  03D6  07F9               	addwf	(calc_crc16@crc)
  3774                           opt subtitle "HI-TECH Software Omniscient Code Generator (Lite mode) build 49521"
  3775                           
  3776                           opt pagewidth 120
  3777  03D7                     l1155:	
  3778                           opt subtitle "HI-TECH Software Omniscient Code Generator (Lite mode) build 49521"
  3779  03D7  01F7               	clrf	(calc_crc16@i)
  3780  03D8  2C11               	goto	l1177
  3781                           opt subtitle "HI-TECH Software Omniscient Code Generator (Lite mode) build 49521"
  3782  03D9                     l67:	
  3783                           opt subtitle "HI-TECH Software Omniscient Code Generator (Lite mode) build 49521"
  3784                           
  3785  03D9  0064               clrwdt ;# 
  3786                           opt subtitle "HI-TECH Software Omniscient Code Generator (Lite mode) build 49521"
  3787                           
  3788                           opt pagewidth 120
  3789  03DA                     l1157:	
  3790                           opt subtitle "HI-TECH Software Omniscient Code Generator (Lite mode) build 49521"
  3791  03DA  0877               	movf	(calc_crc16@i),w
  3792  03DB  0773               	addwf	(calc_crc16@buf),w
  3793  03DC  00F5               	movwf	(??_calc_crc16+0)+0
  3794  03DD  0875               	movf	0+(??_calc_crc16+0)+0,w
  3795  03DE  0086               	movwf	fsr1l
  3796  03DF  0187               	clrf fsr1h	
  3797                           opt subtitle "HI-TECH Software Omniscient Code Generator (Lite mode) build 49521"
  3798  03E0  0801               	movf	indf1,w
  3799  03E1  00F6               	movwf	(??_calc_crc16+1)+0
  3800  03E2  0876               	movf	(??_calc_crc16+1)+0,w
  3801  03E3  06FA               	xorwf	0+(calc_crc16@crc)+01h,f
  3802                           opt subtitle "HI-TECH Software Omniscient Code Generator (Lite mode) build 49521"
  3803                           
  3804  03E4                     l1159:	
  3805                           opt subtitle "HI-TECH Software Omniscient Code Generator (Lite mode) build 49521"
  3806  03E4  01F8               	clrf	(calc_crc16@j)
  3807                           opt subtitle "HI-TECH Software Omniscient Code Generator (Lite mode) build 49521"
  3808  03E5                     l1161:	
  3809  03E5  0878               	movf	(calc_crc16@j),w
  3810  03E6  3A08               	xorlw	08h&0ffh
  3811  03E7  1D03               	skipz
  3812  03E8  2BEA               	goto	u551
  3813  03E9  2BEB               	goto	u550
  3814  03EA                     u551:
  3815  03EA  2BED               	goto	l68
  3816  03EB                     u550:
  3817  03EB  2C0C               	goto	l1175
  3818                           opt subtitle "HI-TECH Software Omniscient Code Generator (Lite mode) build 49521"
  3819  03EC                     l1163:	
  3820  03EC  2C0C               	goto	l1175
  3821                           opt subtitle "HI-TECH Software Omniscient Code Generator (Lite mode) build 49521"
  3822  03ED                     l68:	
  3823                           opt subtitle "HI-TECH Software Omniscient Code Generator (Lite mode) build 49521"
  3824                           
  3825  03ED  1BFA               	btfsc	0+(calc_crc16@crc)+01h,(7)&7
  3826  03EE  2BF0               	goto	u561
  3827  03EF  2BF2               	goto	u560
  3828                           opt subtitle "HI-TECH Software Omniscient Code Generator (Lite mode) build 49521"
  3829  03F0                     u561:
  3830  03F0  147C               	bsf	(calc_crc16@dogen/8),(calc_crc16@dogen)&7
  3831  03F1  2BF3               	goto	u574
  3832  03F2                     u560:
  3833  03F2  107C               	bcf	(calc_crc16@dogen/8),(calc_crc16@dogen)&7
  3834  03F3                     u574:
  3835                           opt subtitle "HI-TECH Software Omniscient Code Generator (Lite mode) build 49521"
  3836                           
  3837  03F3                     l1165:	
  3838                           opt subtitle "HI-TECH Software Omniscient Code Generator (Lite mode) build 49521"
  3839  03F3  3001               	movlw	01h
  3840                           opt subtitle "HI-TECH Software Omniscient Code Generator (Lite mode) build 49521"
  3841  03F4                     u585:
  3842  03F4  35F9               	lslf	(calc_crc16@crc),f
  3843  03F5  0DFA               	rlf	(calc_crc16@crc+1),f
  3844  03F6  0B89               	decfsz	wreg,f
  3845  03F7  2BF4               	goto	u585
  3846                           opt subtitle "HI-TECH Software Omniscient Code Generator (Lite mode) build 49521"
  3847                           
  3848  03F8                     l1167:	
  3849                           opt subtitle "HI-TECH Software Omniscient Code Generator (Lite mode) build 49521"
  3850  03F8  1C7C               	btfss	(calc_crc16@dogen/8),(calc_crc16@dogen)&7
  3851  03F9  2BFB               	goto	u591
  3852  03FA  2BFC               	goto	u590
  3853  03FB                     u591:
  3854  03FB  2C01               	goto	l1171
  3855  03FC                     u590:
  3856                           opt subtitle "HI-TECH Software Omniscient Code Generator (Lite mode) build 49521"
  3857                           
  3858  03FC                     l1169:	
  3859                           opt subtitle "HI-TECH Software Omniscient Code Generator (Lite mode) build 49521"
  3860  03FC  3021               	movlw	low(01021h)
  3861  03FD  06F9               	xorwf	(calc_crc16@crc),f
  3862  03FE  3010               	movlw	high(01021h)
  3863  03FF  06FA               	xorwf	(calc_crc16@crc+1),f
  3864  0400  2C01               	goto	l1171
  3865                           opt subtitle "HI-TECH Software Omniscient Code Generator (Lite mode) build 49521"
  3866                           
  3867  0401                     l70:	
  3868                           opt subtitle "HI-TECH Software Omniscient Code Generator (Lite mode) build 49521"
  3869                           
  3870  0401                     l1171:	
  3871  0401  3001               	movlw	(01h)
  3872  0402  00F5               	movwf	(??_calc_crc16+0)+0
  3873  0403  0875               	movf	(??_calc_crc16+0)+0,w
  3874  0404  07F8               	addwf	(calc_crc16@j),f
  3875                           opt subtitle "HI-TECH Software Omniscient Code Generator (Lite mode) build 49521"
  3876  0405                     l1173:	
  3877  0405  0878               	movf	(calc_crc16@j),w
  3878  0406  3A08               	xorlw	08h&0ffh
  3879  0407  1D03               	skipz
  3880  0408  2C0A               	goto	u601
  3881  0409  2C0B               	goto	u600
  3882  040A                     u601:
  3883  040A  2BED               	goto	l68
  3884  040B                     u600:
  3885  040B  2C0C               	goto	l1175
  3886                           opt subtitle "HI-TECH Software Omniscient Code Generator (Lite mode) build 49521"
  3887  040C                     l69:	
  3888                           opt subtitle "HI-TECH Software Omniscient Code Generator (Lite mode) build 49521"
  3889                           
  3890  040C                     l1175:	
  3891  040C  3001               	movlw	(01h)
  3892  040D  00F5               	movwf	(??_calc_crc16+0)+0
  3893  040E  0875               	movf	(??_calc_crc16+0)+0,w
  3894  040F  07F7               	addwf	(calc_crc16@i),f
  3895  0410  2C11               	goto	l1177
  3896                           opt subtitle "HI-TECH Software Omniscient Code Generator (Lite mode) build 49521"
  3897  0411                     l66:	
  3898                           opt subtitle "HI-TECH Software Omniscient Code Generator (Lite mode) build 49521"
  3899  0411                     l1177:	
  3900  0411  0877               	movf	(calc_crc16@i),w
  3901  0412  0674               	xorwf	(calc_crc16@len),w
  3902  0413  1D03               	skipz
  3903  0414  2C16               	goto	u611
  3904  0415  2C17               	goto	u610
  3905  0416                     u611:
  3906  0416  2BD9               	goto	l67
  3907  0417                     u610:
  3908  0417  2C18               	goto	l1179
  3909                           opt subtitle "HI-TECH Software Omniscient Code Generator (Lite mode) build 49521"
  3910  0418                     l71:	
  3911                           opt subtitle "HI-TECH Software Omniscient Code Generator (Lite mode) build 49521"
  3912                           
  3913  0418                     l1179:	
  3914                           opt subtitle "HI-TECH Software Omniscient Code Generator (Lite mode) build 49521"
  3915                           
  3916                           opt pagewidth 120
  3917                           
  3918  0418  087A               	movf	(calc_crc16@crc+1),w
  3919  0419  01F2               	clrf	(?_calc_crc16+1)
  3920  041A  07F2               	addwf	(?_calc_crc16+1)
  3921  041B  0879               	movf	(calc_crc16@crc),w
  3922  041C  01F1               	clrf	(?_calc_crc16)
  3923  041D  07F1               	addwf	(?_calc_crc16)
  3924                           opt subtitle "HI-TECH Software Omniscient Code Generator (Lite mode) build 49521"
  3925  041E  2C1F               	goto	l72
  3926                           opt subtitle "HI-TECH Software Omniscient Code Generator (Lite mode) build 49521"
  3927  041F                     l1181:	
  3928                           opt subtitle "HI-TECH Software Omniscient Code Generator (Lite mode) build 49521"
  3929                           
  3930  041F                     l72:	
  3931  041F  0008               	return
  3932                           opt subtitle "HI-TECH Software Omniscient Code Generator (Lite mode) build 49521"
  3933                           
  3934  0420                     	__end_of_calc_crc16:
  3935                           opt subtitle "HI-TECH Software Omniscient Code Generator (Lite mode) build 49521"
  3936                           
  3937                           opt pagewidth 120
  3938                           
  3939                           	opt lm
  3940                           
  3941                           	processor	16F1825
  3942                           clrc	macro
  3943                           	bcf	3,0
  3944                           	endm
  3945                           clrz	macro
  3946                           	bcf	3,2
  3947                           	endm
  3948                           setc	macro
  3949                           	bsf	3,0
  3950                           	endm
  3951                           setz	macro
  3952                           	bsf	3,2
  3953                           	endm
  3954                           skipc	macro
  3955                           	btfss	3,0
  3956                           	endm
  3957                           skipz	macro
  3958                           	btfss	3,2
  3959                           	endm
  3960                           skipnc	macro
  3961                           	btfsc	3,0
  3962                           	endm
  3963                           skipnz	macro
  3964                           	btfsc	3,2
  3965                           	endm
  3966                           indf	equ	0
  3967                           indf0	equ	0
  3968                           indf1	equ	1
  3969                           pc	equ	2
  3970                           pcl	equ	2
  3971                           status	equ	3
  3972                           fsr0l	equ	4
  3973                           fsr0h	equ	5
  3974  0420                     __ptext542:	;psect for function _flash_read_row
  3975                           opt subtitle "HI-TECH Software Omniscient Code Generator (Lite mode) build 49521"
  3976                           
  3977                           opt pagewidth 120
  3978                           
  3979  003C                     	__size_of_flash_read_row	equ	__end_of_flash_read_row-_flash_read_row
  3980                           opt subtitle "HI-TECH Software Omniscient Code Generator (Lite mode) build 49521"
  3981  0420                     _flash_read_row:	
  3982                           opt subtitle "HI-TECH Software Omniscient Code Generator (Lite mode) build 49521"
  3983                           
  3984                           opt pagewidth 120
  3985                           
  3986  0420                     l1309:	
  3987                           opt subtitle "HI-TECH Software Omniscient Code Generator (Lite mode) build 49521"
  3988  0420  0873               	movf	(flash_read_row@buffer),w
  3989  0421  00F4               	movwf	(??_flash_read_row+0)+0
  3990  0422  0874               	movf	(??_flash_read_row+0)+0,w
  3991  0423  00F5               	movwf	(flash_read_row@pma)
  3992                           opt subtitle "HI-TECH Software Omniscient Code Generator (Lite mode) build 49521"
  3993                           
  3994  0424  30E0               	movlw	low(0FFE0h)
  3995  0425  0571               	andwf	(flash_read_row@pm_word_addr),w
  3996  0426  00F6               	movwf	(flash_read_row@wa)
  3997  0427  30FF               	movlw	high(0FFE0h)
  3998  0428  0572               	andwf	(flash_read_row@pm_word_addr+1),w
  3999  0429  00F7               	movwf	1+(flash_read_row@wa)
  4000                           opt subtitle "HI-TECH Software Omniscient Code Generator (Lite mode) build 49521"
  4001                           
  4002  042A                     l1311:	
  4003                           opt subtitle "HI-TECH Software Omniscient Code Generator (Lite mode) build 49521"
  4004                           
  4005  042A  0023               	movlb 3	; select bank3
  4006  042B  1315               	bcf	(405)^0180h,6	;volatile
  4007                           opt subtitle "HI-TECH Software Omniscient Code Generator (Lite mode) build 49521"
  4008                           
  4009  042C                     l1313:	
  4010                           opt subtitle "HI-TECH Software Omniscient Code Generator (Lite mode) build 49521"
  4011  042C  1795               	bsf	(405)^0180h,7	;volatile
  4012                           opt subtitle "HI-TECH Software Omniscient Code Generator (Lite mode) build 49521"
  4013                           
  4014  042D                     l1315:	
  4015                           opt subtitle "HI-TECH Software Omniscient Code Generator (Lite mode) build 49521"
  4016  042D  01F8               	clrf	(flash_read_row@i)
  4017  042E  01F9               	clrf	(flash_read_row@i+1)
  4018                           opt subtitle "HI-TECH Software Omniscient Code Generator (Lite mode) build 49521"
  4019  042F                     l1317:	
  4020  042F  3020               	movlw	020h
  4021  0430  0678               	xorwf	(flash_read_row@i),w
  4022  0431  0479               	iorwf	(flash_read_row@i+1),w
  4023  0432  1D03               	skipz
  4024  0433  2C35               	goto	u771
  4025  0434  2C36               	goto	u770
  4026  0435                     u771:
  4027  0435  2C38               	goto	l1321
  4028  0436                     u770:
  4029  0436  2C5A               	goto	l195
  4030                           opt subtitle "HI-TECH Software Omniscient Code Generator (Lite mode) build 49521"
  4031  0437                     l1319:	
  4032  0437  2C5A               	goto	l195
  4033                           opt subtitle "HI-TECH Software Omniscient Code Generator (Lite mode) build 49521"
  4034  0438                     l194:	
  4035                           opt subtitle "HI-TECH Software Omniscient Code Generator (Lite mode) build 49521"
  4036                           
  4037  0438                     l1321:	
  4038                           opt subtitle "HI-TECH Software Omniscient Code Generator (Lite mode) build 49521"
  4039  0438  0876               	movf	(flash_read_row@wa),w
  4040  0439  0091               	movwf	(401)^0180h	;volatile
  4041                           opt subtitle "HI-TECH Software Omniscient Code Generator (Lite mode) build 49521"
  4042                           
  4043  043A                     l1323:	
  4044                           opt subtitle "HI-TECH Software Omniscient Code Generator (Lite mode) build 49521"
  4045  043A  0877               	movf	(flash_read_row@wa+1),w
  4046  043B  0092               	movwf	(402)^0180h	;volatile
  4047                           opt subtitle "HI-TECH Software Omniscient Code Generator (Lite mode) build 49521"
  4048                           
  4049  043C                     l1325:	
  4050                           opt subtitle "HI-TECH Software Omniscient Code Generator (Lite mode) build 49521"
  4051  043C  1415               	bsf	(405)^0180h,0	;volatile
  4052                           opt subtitle "HI-TECH Software Omniscient Code Generator (Lite mode) build 49521"
  4053                           
  4054  043D                     l1327:	
  4055                           opt subtitle "HI-TECH Software Omniscient Code Generator (Lite mode) build 49521"
  4056  043D  0000               	nop
  4057                           opt subtitle "HI-TECH Software Omniscient Code Generator (Lite mode) build 49521"
  4058                           
  4059  043E                     l1329:	
  4060                           opt subtitle "HI-TECH Software Omniscient Code Generator (Lite mode) build 49521"
  4061  043E  0000               	nop
  4062                           opt subtitle "HI-TECH Software Omniscient Code Generator (Lite mode) build 49521"
  4063                           
  4064  043F                     l1331:	
  4065                           opt subtitle "HI-TECH Software Omniscient Code Generator (Lite mode) build 49521"
  4066  043F  0875               	movf	(flash_read_row@pma),w
  4067  0440  0086               	movwf	fsr1l
  4068  0441  0187               	clrf fsr1h	
  4069                           opt subtitle "HI-TECH Software Omniscient Code Generator (Lite mode) build 49521"
  4070  0442  0023               	movlb 3	; select bank3
  4071  0443  0813               	movf	(403)^0180h,w	;volatile
  4072  0444  3FC0               	movwi	[0]fsr1
  4073  0445  0814               	movf	(404)^0180h,w	;volatile
  4074  0446  3FC1               	movwi	[1]fsr1
  4075                           opt subtitle "HI-TECH Software Omniscient Code Generator (Lite mode) build 49521"
  4076  0447                     l1333:	
  4077  0447  3002               	movlw	(02h)
  4078  0448  00F4               	movwf	(??_flash_read_row+0)+0
  4079  0449  0874               	movf	(??_flash_read_row+0)+0,w
  4080  044A  07F5               	addwf	(flash_read_row@pma),f
  4081                           opt subtitle "HI-TECH Software Omniscient Code Generator (Lite mode) build 49521"
  4082                           
  4083  044B                     l1335:	
  4084                           opt subtitle "HI-TECH Software Omniscient Code Generator (Lite mode) build 49521"
  4085  044B  3001               	movlw	low(01h)
  4086  044C  07F6               	addwf	(flash_read_row@wa),f
  4087  044D  3000               	movlw	high(01h)
  4088  044E  3DF7               	addwfc	(flash_read_row@wa+1),f
  4089                           opt subtitle "HI-TECH Software Omniscient Code Generator (Lite mode) build 49521"
  4090                           
  4091  044F                     l1337:	
  4092  044F  3001               	movlw	low(01h)
  4093  0450  07F8               	addwf	(flash_read_row@i),f
  4094  0451  3000               	movlw	high(01h)
  4095  0452  3DF9               	addwfc	(flash_read_row@i+1),f
  4096                           opt subtitle "HI-TECH Software Omniscient Code Generator (Lite mode) build 49521"
  4097  0453                     l1339:	
  4098  0453  3020               	movlw	020h
  4099  0454  0678               	xorwf	(flash_read_row@i),w
  4100  0455  0479               	iorwf	(flash_read_row@i+1),w
  4101  0456  1D03               	skipz
  4102  0457  2C59               	goto	u781
  4103  0458  2C5A               	goto	u780
  4104  0459                     u781:
  4105  0459  2C38               	goto	l1321
  4106  045A                     u780:
  4107                           opt subtitle "HI-TECH Software Omniscient Code Generator (Lite mode) build 49521"
  4108  045A                     l195:	
  4109                           opt subtitle "HI-TECH Software Omniscient Code Generator (Lite mode) build 49521"
  4110                           
  4111                           opt pagewidth 120
  4112  045A  1395               	bcf	(405)^0180h,7	;volatile
  4113                           opt subtitle "HI-TECH Software Omniscient Code Generator (Lite mode) build 49521"
  4114                           
  4115  045B                     l196:	
  4116  045B  0008               	return
  4117                           opt subtitle "HI-TECH Software Omniscient Code Generator (Lite mode) build 49521"
  4118                           
  4119  045C                     	__end_of_flash_read_row:
  4120                           opt subtitle "HI-TECH Software Omniscient Code Generator (Lite mode) build 49521"
  4121                           
  4122                           opt pagewidth 120
  4123                           
  4124                           	opt lm
  4125                           
  4126                           	processor	16F1825
  4127                           clrc	macro
  4128                           	bcf	3,0
  4129                           	endm
  4130                           clrz	macro
  4131                           	bcf	3,2
  4132                           	endm
  4133                           setc	macro
  4134                           	bsf	3,0
  4135                           	endm
  4136                           setz	macro
  4137                           	bsf	3,2
  4138                           	endm
  4139                           skipc	macro
  4140                           	btfss	3,0
  4141                           	endm
  4142                           skipz	macro
  4143                           	btfss	3,2
  4144                           	endm
  4145                           skipnc	macro
  4146                           	btfsc	3,0
  4147                           	endm
  4148                           skipnz	macro
  4149                           	btfsc	3,2
  4150                           	endm
  4151                           indf	equ	0
  4152                           indf0	equ	0
  4153                           indf1	equ	1
  4154                           pc	equ	2
  4155                           pcl	equ	2
  4156                           status	equ	3
  4157                           fsr0l	equ	4
  4158                           fsr0h	equ	5
  4159                           fsr1l	equ	6
  4160                           fsr1h	equ	7
  4161  0308                     __ptext543:	;psect for function _flash_write_row
  4162                           opt subtitle "HI-TECH Software Omniscient Code Generator (Lite mode) build 49521"
  4163                           
  4164                           opt pagewidth 120
  4165                           
  4166  006F                     	__size_of_flash_write_row	equ	__end_of_flash_write_row-_flash_write_row
  4167                           opt subtitle "HI-TECH Software Omniscient Code Generator (Lite mode) build 49521"
  4168  0308                     _flash_write_row:	
  4169                           opt subtitle "HI-TECH Software Omniscient Code Generator (Lite mode) build 49521"
  4170                           
  4171                           opt pagewidth 120
  4172                           
  4173  0308                     l1417:	
  4174                           opt subtitle "HI-TECH Software Omniscient Code Generator (Lite mode) build 49521"
  4175  0308  0873               	movf	(flash_write_row@buffer),w
  4176  0309  00F4               	movwf	(??_flash_write_row+0)+0
  4177  030A  0874               	movf	(??_flash_write_row+0)+0,w
  4178  030B  00F5               	movwf	(flash_write_row@b)
  4179                           opt subtitle "HI-TECH Software Omniscient Code Generator (Lite mode) build 49521"
  4180                           
  4181  030C  30E0               	movlw	low(0FFE0h)
  4182  030D  0571               	andwf	(flash_write_row@pm_word_addr),w
  4183  030E  00F6               	movwf	(flash_write_row@wa)
  4184  030F  30FF               	movlw	high(0FFE0h)
  4185  0310  0572               	andwf	(flash_write_row@pm_word_addr+1),w
  4186  0311  00F7               	movwf	1+(flash_write_row@wa)
  4187                           opt subtitle "HI-TECH Software Omniscient Code Generator (Lite mode) build 49521"
  4188                           
  4189                           opt pagewidth 120
  4190                           
  4191  0312  0876               	movf	(flash_write_row@wa),w
  4192  0313  0023               	movlb 3	; select bank3
  4193  0314  0091               	movwf	(401)^0180h	;volatile
  4194                           opt subtitle "HI-TECH Software Omniscient Code Generator (Lite mode) build 49521"
  4195                           
  4196  0315                     l1419:	
  4197                           opt subtitle "HI-TECH Software Omniscient Code Generator (Lite mode) build 49521"
  4198  0315  0877               	movf	(flash_write_row@wa+1),w
  4199  0316  0092               	movwf	(402)^0180h	;volatile
  4200                           opt subtitle "HI-TECH Software Omniscient Code Generator (Lite mode) build 49521"
  4201                           
  4202  0317                     l1421:	
  4203                           opt subtitle "HI-TECH Software Omniscient Code Generator (Lite mode) build 49521"
  4204  0317  1795               	bsf	(405)^0180h,7	;volatile
  4205                           opt subtitle "HI-TECH Software Omniscient Code Generator (Lite mode) build 49521"
  4206                           
  4207  0318                     l1423:	
  4208                           opt subtitle "HI-TECH Software Omniscient Code Generator (Lite mode) build 49521"
  4209  0318  1315               	bcf	(405)^0180h,6	;volatile
  4210                           opt subtitle "HI-TECH Software Omniscient Code Generator (Lite mode) build 49521"
  4211                           
  4212  0319                     l1425:	
  4213                           opt subtitle "HI-TECH Software Omniscient Code Generator (Lite mode) build 49521"
  4214  0319  1615               	bsf	(405)^0180h,4	;volatile
  4215                           opt subtitle "HI-TECH Software Omniscient Code Generator (Lite mode) build 49521"
  4216                           
  4217  031A                     l1427:	
  4218                           opt subtitle "HI-TECH Software Omniscient Code Generator (Lite mode) build 49521"
  4219  031A  1515               	bsf	(405)^0180h,2	;volatile
  4220                           opt subtitle "HI-TECH Software Omniscient Code Generator (Lite mode) build 49521"
  4221                           
  4222  031B                     l1429:	
  4223                           opt subtitle "HI-TECH Software Omniscient Code Generator (Lite mode) build 49521"
  4224  031B  3055               	movlw	(055h)
  4225  031C  0096               	movwf	(406)^0180h	;volatile
  4226                           opt subtitle "HI-TECH Software Omniscient Code Generator (Lite mode) build 49521"
  4227                           
  4228  031D                     l1431:	
  4229                           opt subtitle "HI-TECH Software Omniscient Code Generator (Lite mode) build 49521"
  4230  031D  30AA               	movlw	(0AAh)
  4231  031E  0096               	movwf	(406)^0180h	;volatile
  4232                           opt subtitle "HI-TECH Software Omniscient Code Generator (Lite mode) build 49521"
  4233                           
  4234  031F                     l1433:	
  4235                           opt subtitle "HI-TECH Software Omniscient Code Generator (Lite mode) build 49521"
  4236  031F  1495               	bsf	(405)^0180h,1	;volatile
  4237                           opt subtitle "HI-TECH Software Omniscient Code Generator (Lite mode) build 49521"
  4238                           
  4239  0320                     l1435:	
  4240                           opt subtitle "HI-TECH Software Omniscient Code Generator (Lite mode) build 49521"
  4241  0320  0000               	nop
  4242                           opt subtitle "HI-TECH Software Omniscient Code Generator (Lite mode) build 49521"
  4243                           
  4244  0321                     l1437:	
  4245                           opt subtitle "HI-TECH Software Omniscient Code Generator (Lite mode) build 49521"
  4246  0321  0000               	nop
  4247                           opt subtitle "HI-TECH Software Omniscient Code Generator (Lite mode) build 49521"
  4248                           
  4249  0322                     l1439:	
  4250                           opt subtitle "HI-TECH Software Omniscient Code Generator (Lite mode) build 49521"
  4251  0322  0023               	movlb 3	; select bank3
  4252  0323  1215               	bcf	(405)^0180h,4	;volatile
  4253                           opt subtitle "HI-TECH Software Omniscient Code Generator (Lite mode) build 49521"
  4254                           
  4255  0324                     l1441:	
  4256                           opt subtitle "HI-TECH Software Omniscient Code Generator (Lite mode) build 49521"
  4257  0324  01FA               	clrf	(flash_write_row@i)
  4258                           opt subtitle "HI-TECH Software Omniscient Code Generator (Lite mode) build 49521"
  4259  0325                     l1443:	
  4260  0325  087A               	movf	(flash_write_row@i),w
  4261  0326  3A04               	xorlw	04h&0ffh
  4262  0327  1D03               	skipz
  4263  0328  2B2A               	goto	u911
  4264  0329  2B2B               	goto	u910
  4265  032A                     u911:
  4266  032A  2B2D               	goto	l199
  4267  032B                     u910:
  4268  032B  2B74               	goto	l200
  4269                           opt subtitle "HI-TECH Software Omniscient Code Generator (Lite mode) build 49521"
  4270  032C                     l1445:	
  4271  032C  2B74               	goto	l200
  4272                           opt subtitle "HI-TECH Software Omniscient Code Generator (Lite mode) build 49521"
  4273  032D                     l199:	
  4274                           opt subtitle "HI-TECH Software Omniscient Code Generator (Lite mode) build 49521"
  4275                           
  4276  032D  01FB               	clrf	(flash_write_row@j)
  4277                           opt subtitle "HI-TECH Software Omniscient Code Generator (Lite mode) build 49521"
  4278  032E                     l1447:	
  4279  032E  087B               	movf	(flash_write_row@j),w
  4280  032F  3A08               	xorlw	08h&0ffh
  4281  0330  1D03               	skipz
  4282  0331  2B33               	goto	u921
  4283  0332  2B34               	goto	u920
  4284  0333                     u921:
  4285  0333  2B36               	goto	l1451
  4286  0334                     u920:
  4287  0334  2B6A               	goto	l1477
  4288                           opt subtitle "HI-TECH Software Omniscient Code Generator (Lite mode) build 49521"
  4289  0335                     l1449:	
  4290  0335  2B6A               	goto	l1477
  4291                           opt subtitle "HI-TECH Software Omniscient Code Generator (Lite mode) build 49521"
  4292  0336                     l201:	
  4293                           opt subtitle "HI-TECH Software Omniscient Code Generator (Lite mode) build 49521"
  4294                           
  4295  0336                     l1451:	
  4296                           opt subtitle "HI-TECH Software Omniscient Code Generator (Lite mode) build 49521"
  4297  0336  087B               	movf	(flash_write_row@j),w
  4298  0337  3A07               	xorlw	07h&0ffh
  4299  0338  3000               	movlw	0
  4300  0339  1D03               	skipz
  4301  033A  3001               	movlw	1
  4302  033B  00F4               	movwf	(??_flash_write_row+0)+0
  4303  033C  0EF4               	swapf	(??_flash_write_row+0)+0,f
  4304  033D  0DF4               	rlf	(??_flash_write_row+0)+0,f
  4305  033E  0023               	movlb 3	; select bank3
  4306  033F  0815               	movf	(405)^0180h,w	;volatile
  4307  0340  0674               	xorwf	(??_flash_write_row+0)+0,w
  4308  0341  39DF               	andlw	not (((1<<1)-1)<<5)
  4309  0342  0674               	xorwf	(??_flash_write_row+0)+0,w
  4310  0343  0095               	movwf	(405)^0180h	;volatile
  4311                           opt subtitle "HI-TECH Software Omniscient Code Generator (Lite mode) build 49521"
  4312                           
  4313  0344                     l1453:	
  4314                           opt subtitle "HI-TECH Software Omniscient Code Generator (Lite mode) build 49521"
  4315  0344  0875               	movf	(flash_write_row@b),w
  4316  0345  0086               	movwf	fsr1l
  4317  0346  0187               	clrf fsr1h	
  4318                           opt subtitle "HI-TECH Software Omniscient Code Generator (Lite mode) build 49521"
  4319  0347  3F40               	moviw	[0]fsr1
  4320  0348  00F8               	movwf	(flash_write_row@v)
  4321  0349  3F41               	moviw	[1]fsr1
  4322  034A  00F9               	movwf	(flash_write_row@v+1)
  4323                           opt subtitle "HI-TECH Software Omniscient Code Generator (Lite mode) build 49521"
  4324  034B                     l1455:	
  4325  034B  3002               	movlw	(02h)
  4326  034C  00F4               	movwf	(??_flash_write_row+0)+0
  4327  034D  0874               	movf	(??_flash_write_row+0)+0,w
  4328  034E  07F5               	addwf	(flash_write_row@b),f
  4329                           opt subtitle "HI-TECH Software Omniscient Code Generator (Lite mode) build 49521"
  4330                           
  4331  034F                     l1457:	
  4332                           opt subtitle "HI-TECH Software Omniscient Code Generator (Lite mode) build 49521"
  4333  034F  0878               	movf	(flash_write_row@v),w
  4334  0350  0093               	movwf	(403)^0180h	;volatile
  4335                           opt subtitle "HI-TECH Software Omniscient Code Generator (Lite mode) build 49521"
  4336                           
  4337  0351                     l1459:	
  4338                           opt subtitle "HI-TECH Software Omniscient Code Generator (Lite mode) build 49521"
  4339  0351  0879               	movf	(flash_write_row@v+1),w
  4340  0352  0094               	movwf	(404)^0180h	;volatile
  4341                           opt subtitle "HI-TECH Software Omniscient Code Generator (Lite mode) build 49521"
  4342                           
  4343  0353                     l1461:	
  4344                           opt subtitle "HI-TECH Software Omniscient Code Generator (Lite mode) build 49521"
  4345  0353  3055               	movlw	(055h)
  4346  0354  0096               	movwf	(406)^0180h	;volatile
  4347                           opt subtitle "HI-TECH Software Omniscient Code Generator (Lite mode) build 49521"
  4348                           
  4349  0355                     l1463:	
  4350                           opt subtitle "HI-TECH Software Omniscient Code Generator (Lite mode) build 49521"
  4351  0355  30AA               	movlw	(0AAh)
  4352  0356  0096               	movwf	(406)^0180h	;volatile
  4353                           opt subtitle "HI-TECH Software Omniscient Code Generator (Lite mode) build 49521"
  4354                           
  4355  0357                     l1465:	
  4356                           opt subtitle "HI-TECH Software Omniscient Code Generator (Lite mode) build 49521"
  4357  0357  1495               	bsf	(405)^0180h,1	;volatile
  4358                           opt subtitle "HI-TECH Software Omniscient Code Generator (Lite mode) build 49521"
  4359                           
  4360  0358                     l1467:	
  4361                           opt subtitle "HI-TECH Software Omniscient Code Generator (Lite mode) build 49521"
  4362  0358  0000               	nop
  4363                           opt subtitle "HI-TECH Software Omniscient Code Generator (Lite mode) build 49521"
  4364                           
  4365  0359                     l1469:	
  4366                           opt subtitle "HI-TECH Software Omniscient Code Generator (Lite mode) build 49521"
  4367  0359  0000               	nop
  4368                           opt subtitle "HI-TECH Software Omniscient Code Generator (Lite mode) build 49521"
  4369                           
  4370  035A                     l1471:	
  4371                           opt subtitle "HI-TECH Software Omniscient Code Generator (Lite mode) build 49521"
  4372  035A  3001               	movlw	(01h)
  4373  035B  00F4               	movwf	(??_flash_write_row+0)+0
  4374  035C  0874               	movf	(??_flash_write_row+0)+0,w
  4375  035D  0023               	movlb 3	; select bank3
  4376  035E  0791               	addwf	(401)^0180h,f	;volatile
  4377                           opt subtitle "HI-TECH Software Omniscient Code Generator (Lite mode) build 49521"
  4378                           
  4379  035F                     l1473:	
  4380  035F  3001               	movlw	(01h)
  4381  0360  00F4               	movwf	(??_flash_write_row+0)+0
  4382  0361  0874               	movf	(??_flash_write_row+0)+0,w
  4383  0362  07FB               	addwf	(flash_write_row@j),f
  4384                           opt subtitle "HI-TECH Software Omniscient Code Generator (Lite mode) build 49521"
  4385  0363                     l1475:	
  4386  0363  087B               	movf	(flash_write_row@j),w
  4387  0364  3A08               	xorlw	08h&0ffh
  4388  0365  1D03               	skipz
  4389  0366  2B68               	goto	u931
  4390  0367  2B69               	goto	u930
  4391  0368                     u931:
  4392  0368  2B36               	goto	l1451
  4393  0369                     u930:
  4394  0369  2B6A               	goto	l1477
  4395                           opt subtitle "HI-TECH Software Omniscient Code Generator (Lite mode) build 49521"
  4396  036A                     l202:	
  4397                           opt subtitle "HI-TECH Software Omniscient Code Generator (Lite mode) build 49521"
  4398                           
  4399  036A                     l1477:	
  4400  036A  3001               	movlw	(01h)
  4401  036B  00F4               	movwf	(??_flash_write_row+0)+0
  4402  036C  0874               	movf	(??_flash_write_row+0)+0,w
  4403  036D  07FA               	addwf	(flash_write_row@i),f
  4404                           opt subtitle "HI-TECH Software Omniscient Code Generator (Lite mode) build 49521"
  4405  036E                     l1479:	
  4406  036E  087A               	movf	(flash_write_row@i),w
  4407  036F  3A04               	xorlw	04h&0ffh
  4408  0370  1D03               	skipz
  4409  0371  2B73               	goto	u941
  4410  0372  2B74               	goto	u940
  4411  0373                     u941:
  4412  0373  2B2D               	goto	l199
  4413  0374                     u940:
  4414                           opt subtitle "HI-TECH Software Omniscient Code Generator (Lite mode) build 49521"
  4415  0374                     l200:	
  4416                           opt subtitle "HI-TECH Software Omniscient Code Generator (Lite mode) build 49521"
  4417                           
  4418                           opt pagewidth 120
  4419                           
  4420  0374  0023               	movlb 3	; select bank3
  4421  0375  1115               	bcf	(405)^0180h,2	;volatile
  4422                           opt subtitle "HI-TECH Software Omniscient Code Generator (Lite mode) build 49521"
  4423                           
  4424  0376                     l203:	
  4425  0376  0008               	return
  4426                           opt subtitle "HI-TECH Software Omniscient Code Generator (Lite mode) build 49521"
  4427                           
  4428  0377                     	__end_of_flash_write_row:
  4429                           opt subtitle "HI-TECH Software Omniscient Code Generator (Lite mode) build 49521"
  4430                           
  4431                           opt pagewidth 120
  4432                           
  4433                           	opt lm
  4434                           
  4435                           	processor	16F1825
  4436                           clrc	macro
  4437                           	bcf	3,0
  4438                           	endm
  4439                           clrz	macro
  4440                           	bcf	3,2
  4441                           	endm
  4442                           setc	macro
  4443                           	bsf	3,0
  4444                           	endm
  4445                           setz	macro
  4446                           	bsf	3,2
  4447                           	endm
  4448                           skipc	macro
  4449                           	btfss	3,0
  4450                           	endm
  4451                           skipz	macro
  4452                           	btfss	3,2
  4453                           	endm
  4454                           skipnc	macro
  4455                           	btfsc	3,0
  4456                           	endm
  4457                           skipnz	macro
  4458                           	btfsc	3,2
  4459                           	endm
  4460                           indf	equ	0
  4461                           indf0	equ	0
  4462                           indf1	equ	1
  4463                           pc	equ	2
  4464                           pcl	equ	2
  4465  045C                     __ptext544:	;psect for function _eeprom_write
  4466                           opt subtitle "HI-TECH Software Omniscient Code Generator (Lite mode) build 49521"
  4467                           
  4468                           opt pagewidth 120
  4469                           
  4470  002E                     	__size_of_eeprom_write	equ	__end_of_eeprom_write-_eeprom_write
  4471                           opt subtitle "HI-TECH Software Omniscient Code Generator (Lite mode) build 49521"
  4472  045C                     _eeprom_write:	
  4473                           opt subtitle "HI-TECH Software Omniscient Code Generator (Lite mode) build 49521"
  4474                           
  4475                           opt pagewidth 120
  4476  045C  00F4               	movwf	(eeprom_write@addr)
  4477                           opt subtitle "HI-TECH Software Omniscient Code Generator (Lite mode) build 49521"
  4478                           
  4479  045D                     l237:	
  4480  045D  2C5E               	goto	l238
  4481                           opt subtitle "HI-TECH Software Omniscient Code Generator (Lite mode) build 49521"
  4482  045E                     l239:	
  4483                           opt subtitle "HI-TECH Software Omniscient Code Generator (Lite mode) build 49521"
  4484  045E                     l238:	
  4485  045E  0023               	movlb 3	; select bank3
  4486  045F  1895               	btfsc	(3241/8)^0180h,(3241)&7	;volatile
  4487  0460  2C62               	goto	u951
  4488  0461  2C63               	goto	u950
  4489  0462                     u951:
  4490  0462  2C5E               	goto	l238
  4491  0463                     u950:
  4492  0463  2C64               	goto	l1481
  4493                           opt subtitle "HI-TECH Software Omniscient Code Generator (Lite mode) build 49521"
  4494  0464                     l240:	
  4495                           opt subtitle "HI-TECH Software Omniscient Code Generator (Lite mode) build 49521"
  4496  0464                     l1481:	
  4497  0464  0874               	movf	(eeprom_write@addr),w
  4498  0465  00F2               	movwf	(??_eeprom_write+0)+0+0
  4499  0466  01F3               	clrf	(??_eeprom_write+0)+0+1
  4500  0467  0872               	movf	0+(??_eeprom_write+0)+0,w
  4501  0468  0091               	movwf	(401)^0180h	;volatile
  4502  0469  0873               	movf	1+(??_eeprom_write+0)+0,w
  4503  046A  0092               	movwf	(401+1)^0180h	;volatile
  4504  046B  0871               	movf	(eeprom_write@value),w
  4505  046C  0093               	movwf	(403)^0180h	;volatile
  4506                           opt subtitle "HI-TECH Software Omniscient Code Generator (Lite mode) build 49521"
  4507  046D                     l1483:	
  4508  046D  303F               	movlw	(03Fh)
  4509  046E  00F2               	movwf	(??_eeprom_write+0)+0
  4510  046F  0872               	movf	(??_eeprom_write+0)+0,w
  4511  0470  0595               	andwf	(405)^0180h,f	;volatile
  4512                           opt subtitle "HI-TECH Software Omniscient Code Generator (Lite mode) build 49521"
  4513  0471                     l1485:	
  4514  0471  0020               	movlb 0	; select bank0
  4515  0472  1003               	bcf	(24/8),(24)&7	;volatile
  4516                           opt subtitle "HI-TECH Software Omniscient Code Generator (Lite mode) build 49521"
  4517  0473                     l1487:	
  4518  0473  1F8B               	btfss	(95/8),(95)&7	;volatile
  4519  0474  2C76               	goto	u961
  4520  0475  2C77               	goto	u960
  4521  0476                     u961:
  4522  0476  2C78               	goto	l241
  4523  0477                     u960:
  4524                           opt subtitle "HI-TECH Software Omniscient Code Generator (Lite mode) build 49521"
  4525  0477                     l1489:	
  4526  0477  1403               	bsf	(24/8),(24)&7	;volatile
  4527                           opt subtitle "HI-TECH Software Omniscient Code Generator (Lite mode) build 49521"
  4528  0478                     l241:	
  4529  0478  138B               	bcf	(95/8),(95)&7	;volatile
  4530  0479  0023               	movlb 3	; select bank3
  4531  047A  1515               	bsf	(3242/8)^0180h,(3242)&7	;volatile
  4532                           opt subtitle "HI-TECH Software Omniscient Code Generator (Lite mode) build 49521"
  4533  047B                     l1491:	
  4534  047B  3055               	movlw	(055h)
  4535  047C  0096               	movwf	(406)^0180h	;volatile
  4536  047D  30AA               	movlw	(0AAh)
  4537  047E  0096               	movwf	(406)^0180h	;volatile
  4538                           opt subtitle "HI-TECH Software Omniscient Code Generator (Lite mode) build 49521"
  4539  047F                     l1493:	
  4540  047F  1495               	bsf	(3241/8)^0180h,(3241)&7	;volatile
  4541                           opt subtitle "HI-TECH Software Omniscient Code Generator (Lite mode) build 49521"
  4542  0480                     l1495:	
  4543  0480  1115               	bcf	(3242/8)^0180h,(3242)&7	;volatile
  4544                           opt subtitle "HI-TECH Software Omniscient Code Generator (Lite mode) build 49521"
  4545  0481                     l1497:	
  4546  0481  0020               	movlb 0	; select bank0
  4547  0482  1C03               	btfss	(24/8),(24)&7	;volatile
  4548  0483  2C85               	goto	u971
  4549  0484  2C86               	goto	u970
  4550  0485                     u971:
  4551  0485  2C89               	goto	l244
  4552  0486                     u970:
  4553                           opt subtitle "HI-TECH Software Omniscient Code Generator (Lite mode) build 49521"
  4554  0486                     l1499:	
  4555  0486  178B               	bsf	(95/8),(95)&7	;volatile
  4556  0487  2C89               	goto	l244
  4557                           opt subtitle "HI-TECH Software Omniscient Code Generator (Lite mode) build 49521"
  4558  0488                     l242:	
  4559  0488  2C89               	goto	l244
  4560                           opt subtitle "HI-TECH Software Omniscient Code Generator (Lite mode) build 49521"
  4561  0489                     l243:	
  4562                           opt subtitle "HI-TECH Software Omniscient Code Generator (Lite mode) build 49521"
  4563                           
  4564  0489                     l244:	
  4565  0489  0008               	return
  4566                           opt subtitle "HI-TECH Software Omniscient Code Generator (Lite mode) build 49521"
  4567                           
  4568  048A                     	__end_of_eeprom_write:
  4569                           opt subtitle "HI-TECH Software Omniscient Code Generator (Lite mode) build 49521"
  4570                           
  4571                           opt pagewidth 120
  4572                           
  4573                           	opt lm
  4574                           
  4575                           	processor	16F1825
  4576                           clrc	macro
  4577                           	bcf	3,0
  4578                           	endm
  4579                           clrz	macro
  4580                           	bcf	3,2
  4581                           	endm
  4582                           setc	macro
  4583                           	bsf	3,0
  4584                           	endm
  4585                           setz	macro
  4586                           	bsf	3,2
  4587                           	endm
  4588                           skipc	macro
  4589                           	btfss	3,0
  4590                           	endm
  4591                           skipz	macro
  4592                           	btfss	3,2
  4593                           	endm
  4594                           skipnc	macro
  4595                           	btfsc	3,0
  4596                           	endm
  4597                           skipnz	macro
  4598                           	btfsc	3,2
  4599                           	endm
  4600                           indf	equ	0
  4601                           indf0	equ	0
  4602                           indf1	equ	1
  4603                           pc	equ	2
  4604  04AE                     __ptext545:	;psect for function _eeprom_read
  4605                           opt subtitle "HI-TECH Software Omniscient Code Generator (Lite mode) build 49521"
  4606                           
  4607                           opt pagewidth 120
  4608                           
  4609  001C                     	__size_of_eeprom_read	equ	__end_of_eeprom_read-_eeprom_read
  4610                           opt subtitle "HI-TECH Software Omniscient Code Generator (Lite mode) build 49521"
  4611  04AE                     _eeprom_read:	
  4612                           opt subtitle "HI-TECH Software Omniscient Code Generator (Lite mode) build 49521"
  4613                           
  4614                           opt pagewidth 120
  4615                           
  4616  04AE  00F4               	movwf	(eeprom_read@addr)
  4617                           opt subtitle "HI-TECH Software Omniscient Code Generator (Lite mode) build 49521"
  4618                           
  4619  04AF                     l216:	
  4620                           opt subtitle "HI-TECH Software Omniscient Code Generator (Lite mode) build 49521"
  4621                           
  4622  04AF  0064               clrwdt ;# 
  4623                           opt subtitle "HI-TECH Software Omniscient Code Generator (Lite mode) build 49521"
  4624                           
  4625  04B0  0023               	movlb 3	; select bank3
  4626  04B1  1895               	btfsc	(3241/8)^0180h,(3241)&7	;volatile
  4627  04B2  2CB4               	goto	u1041
  4628  04B3  2CB5               	goto	u1040
  4629  04B4                     u1041:
  4630  04B4  2CAF               	goto	l216
  4631  04B5                     u1040:
  4632  04B5  2CB6               	goto	l1557
  4633                           opt subtitle "HI-TECH Software Omniscient Code Generator (Lite mode) build 49521"
  4634  04B6                     l217:	
  4635                           opt subtitle "HI-TECH Software Omniscient Code Generator (Lite mode) build 49521"
  4636                           
  4637  04B6                     l1557:	
  4638  04B6  0874               	movf	(eeprom_read@addr),w
  4639  04B7  00F1               	movwf	(??_eeprom_read+0)+0+0
  4640  04B8  01F2               	clrf	(??_eeprom_read+0)+0+1
  4641  04B9  0871               	movf	0+(??_eeprom_read+0)+0,w
  4642  04BA  0091               	movwf	(401)^0180h	;volatile
  4643  04BB  0872               	movf	1+(??_eeprom_read+0)+0,w
  4644  04BC  0092               	movwf	(401+1)^0180h	;volatile
  4645  04BD  303F               	movlw	(03Fh)
  4646  04BE  00F3               	movwf	(??_eeprom_read+2)+0
  4647  04BF  0873               	movf	(??_eeprom_read+2)+0,w
  4648  04C0  0595               	andwf	(405)^0180h,f	;volatile
  4649  04C1  1415               	bsf	(3240/8)^0180h,(3240)&7	;volatile
  4650  04C2  1003               	clrc
  4651  04C3  1815               	btfsc	(3240/8)^0180h,(3240)&7	;volatile
  4652  04C4  1403               	setc
  4653  04C5  3000               	movlw	0
  4654  04C6  3D09               	addwfc	wreg,w
  4655  04C7  0813               	movf	(403)^0180h,w	;volatile
  4656  04C8  2CC9               	goto	l218
  4657                           opt subtitle "HI-TECH Software Omniscient Code Generator (Lite mode) build 49521"
  4658  04C9                     l1559:	
  4659                           opt subtitle "HI-TECH Software Omniscient Code Generator (Lite mode) build 49521"
  4660                           
  4661  04C9                     l218:	
  4662  04C9  0008               	return
  4663                           opt subtitle "HI-TECH Software Omniscient Code Generator (Lite mode) build 49521"
  4664                           
  4665  04CA                     	__end_of_eeprom_read:
  4666                           opt subtitle "HI-TECH Software Omniscient Code Generator (Lite mode) build 49521"
  4667                           
  4668                           opt pagewidth 120
  4669                           
  4670                           	opt lm
  4671                           
  4672                           	processor	16F1825
  4673                           clrc	macro
  4674                           	bcf	3,0
  4675                           	endm
  4676                           clrz	macro
  4677                           	bcf	3,2
  4678                           	endm
  4679                           setc	macro
  4680                           	bsf	3,0
  4681                           	endm
  4682                           setz	macro
  4683                           	bsf	3,2
  4684                           	endm
  4685                           skipc	macro
  4686                           	btfss	3,0
  4687                           	endm
  4688                           skipz	macro
  4689                           	btfss	3,2
  4690                           	endm
  4691                           skipnc	macro
  4692                           	btfsc	3,0
  4693                           	endm
  4694                           skipnz	macro
  4695                           	btfsc	3,2
  4696                           	endm
  4697                           indf	equ	0
  4698                           indf0	equ	0
  4699  0004                     __pintentry:
  4700                           opt subtitle "HI-TECH Software Omniscient Code Generator (Lite mode) build 49521"
  4701                           
  4702                           opt pagewidth 120
  4703                           
  4704  000A                     	__size_of_isr_redirect	equ	__end_of_isr_redirect-_isr_redirect
  4705                           opt subtitle "HI-TECH Software Omniscient Code Generator (Lite mode) build 49521"
  4706  0004                     _isr_redirect:	
  4707                           opt subtitle "HI-TECH Software Omniscient Code Generator (Lite mode) build 49521"
  4708                           
  4709                           opt pagewidth 120
  4710  0004  3180               	pagesel	$
  4711  0005  0020               	movlb 0	; select bank0
  4712  0006  087F               	movf	btemp+1,w
  4713  0007  00F0               	movwf	(??_isr_redirect+0)
  4714                           opt subtitle "HI-TECH Software Omniscient Code Generator (Lite mode) build 49521"
  4715                           
  4716  0008                     i1l1149:	
  4717                           opt subtitle "HI-TECH Software Omniscient Code Generator (Lite mode) build 49521"
  4718  0008  3188 2804          LJMP (0x800 + 4); ;# 
  4719                           opt subtitle "HI-TECH Software Omniscient Code Generator (Lite mode) build 49521"
  4720                           
  4721                           opt pagewidth 120
  4722  000A                     i1l177:	
  4723  000A  0870               	movf	(??_isr_redirect+0),w
  4724  000B  0020               	movlb 0	; select bank0
  4725  000C  00FF               	movwf	btemp+1
  4726  000D  0009               	retfie
  4727                           opt subtitle "HI-TECH Software Omniscient Code Generator (Lite mode) build 49521"
  4728                           
  4729  000E                     	__end_of_isr_redirect:
  4730                           opt subtitle "HI-TECH Software Omniscient Code Generator (Lite mode) build 49521"
  4731                           
  4732                           opt pagewidth 120
  4733  007E                     	btemp set 07Eh
  4734                           opt subtitle "HI-TECH Software Omniscient Code Generator (Lite mode) build 49521"
  4735                           
  4736                           opt pagewidth 120
  4737  007E                     	wtemp0 set btemp


Data Sizes:
    Strings     0
    Constant    0
    Data        0
    BSS         85
    Persistent  1
    Stack       0

Auto Spaces:
    Space          Size  Autos    Used
    COMMON           14     12      13
    BANK0            80     29      35
    BANK1            80      0      80
    BANK2            80      0       0
    BANK3            80      0       0
    BANK4            80      0       0
    BANK5            80      0       0
    BANK6            80      0       0
    BANK7            80      0       0
    BANK8            80      0       0
    BANK9            80      0       0
    BANK10           80      0       0
    BANK11           80      0       0
    BANK12           48      0       0

Pointer List with Targets:

    ?_read_configmem_word	unsigned int  size(1) Largest target is 80
		 -> pkt(BANK1[80]), 

    ?_calc_crc16	unsigned int  size(1) Largest target is 0

    flash_write_row@buffer	PTR void  size(1) Largest target is 80
		 -> pkt(BANK1[80]), 

    flash_write_row@b	PTR unsigned int  size(1) Largest target is 80
		 -> pkt(BANK1[80]), 

    flash_read_row@buffer	PTR void  size(1) Largest target is 80
		 -> pkt(BANK1[80]), 

    flash_read_row@pma	PTR unsigned int  size(1) Largest target is 80
		 -> pkt(BANK1[80]), 

    send_query_response@q	PTR unsigned char  size(1) Largest target is 80
		 -> pkt.pl(BANK1[64]), pkt(BANK1[80]), 

    calc_crc16@buf	PTR unsigned char  size(1) Largest target is 80
		 -> pkt(BANK1[80]), 


Critical Paths under _main in COMMON

    _send_query_response->_calc_crc16
    _process_packet->_flash_write_row
    _check_appspace->_calc_crc16

Critical Paths under _isr_redirect in COMMON

    None.

Critical Paths under _main in BANK0

    _main->_do_bootloader
    _do_bootloader->_process_packet
    _process_packet->_check_appspace

Critical Paths under _isr_redirect in BANK0

    None.

Critical Paths under _main in BANK1

    None.

Critical Paths under _isr_redirect in BANK1

    None.

Critical Paths under _main in BANK2

    None.

Critical Paths under _isr_redirect in BANK2

    None.

Critical Paths under _main in BANK3

    None.

Critical Paths under _isr_redirect in BANK3

    None.

Critical Paths under _main in BANK4

    None.

Critical Paths under _isr_redirect in BANK4

    None.

Critical Paths under _main in BANK5

    None.

Critical Paths under _isr_redirect in BANK5

    None.

Critical Paths under _main in BANK6

    None.

Critical Paths under _isr_redirect in BANK6

    None.

Critical Paths under _main in BANK7

    None.

Critical Paths under _isr_redirect in BANK7

    None.

Critical Paths under _main in BANK8

    None.

Critical Paths under _isr_redirect in BANK8

    None.

Critical Paths under _main in BANK9

    None.

Critical Paths under _isr_redirect in BANK9

    None.

Critical Paths under _main in BANK10

    None.

Critical Paths under _isr_redirect in BANK10

    None.

Critical Paths under _main in BANK11

    None.

Critical Paths under _isr_redirect in BANK11

    None.

Critical Paths under _main in BANK12

    None.

Critical Paths under _isr_redirect in BANK12

    None.

Call Graph Tables:

 ---------------------------------------------------------------------------------
 (Depth) Function   	        Calls       Base Space   Used Autos Params    Refs
 ---------------------------------------------------------------------------------
 (0) _main                                                 3     3      0    2968
                                             26 BANK0      3     3      0
                        _eeprom_read
                      _do_bootloader
                     _check_appspace
                          _start_app
 ---------------------------------------------------------------------------------
 (1) _do_bootloader                                        3     3      0    2416
                                             23 BANK0      3     3      0
                               _getc
                     _process_packet
                               _putc
                _send_query_response
                      _tx_wait_empty
                        _eeprom_read
                       _eeprom_write
                          _start_app
 ---------------------------------------------------------------------------------
 (1) _start_app                                            0     0      0       0
 ---------------------------------------------------------------------------------
 (2) _getc                                                 0     0      0       0
 ---------------------------------------------------------------------------------
 (2) _send_query_response                                  6     6      0     762
                                              0 BANK0      6     6      0
                _read_configmem_word
                         _calc_crc16
                               _putc
 ---------------------------------------------------------------------------------
 (3) _read_configmem_word                                  7     5      2      46
                                              1 COMMON     7     5      2
 ---------------------------------------------------------------------------------
 (3) _putc                                                 1     1      0      22
                                              1 COMMON     1     1      0
                      _tx_wait_empty
 ---------------------------------------------------------------------------------
 (2) _tx_wait_empty                                        0     0      0       0
 ---------------------------------------------------------------------------------
 (2) _process_packet                                       9     9      0    1331
                                             14 BANK0      9     9      0
                         _calc_crc16
                    _flash_write_row
                       _eeprom_write
                     _check_appspace
 ---------------------------------------------------------------------------------
 (1) _check_appspace                                      14    14      0     530
                                              0 BANK0     14    14      0
                     _flash_read_row
                         _calc_crc16
 ---------------------------------------------------------------------------------
 (2) _calc_crc16                                          10     6      4     230
                                              1 COMMON    10     6      4
 ---------------------------------------------------------------------------------
 (2) _flash_read_row                                       9     6      3     160
                                              1 COMMON     9     6      3
 ---------------------------------------------------------------------------------
 (3) _flash_write_row                                     11     8      3     272
                                              1 COMMON    11     8      3
 ---------------------------------------------------------------------------------
 (2) _eeprom_write                                         4     3      1      44
                                              1 COMMON     4     3      1
 ---------------------------------------------------------------------------------
 (2) _eeprom_read                                          4     4      0      22
                                              1 COMMON     4     4      0
 ---------------------------------------------------------------------------------
 Estimated maximum stack depth 3
 ---------------------------------------------------------------------------------
 (Depth) Function   	        Calls       Base Space   Used Autos Params    Refs
 ---------------------------------------------------------------------------------
 (5) _isr_redirect                                         1     1      0       0
                                              0 COMMON     1     1      0
 ---------------------------------------------------------------------------------
 Estimated maximum stack depth 5
 ---------------------------------------------------------------------------------

 Call Graph Graphs:

 _main (ROOT)
   _eeprom_read
   _do_bootloader
     _getc
     _process_packet
       _calc_crc16
       _flash_write_row
       _eeprom_write
       _check_appspace
         _flash_read_row
         _calc_crc16
     _putc
       _tx_wait_empty
     _send_query_response
       _read_configmem_word
       _calc_crc16
       _putc
         _tx_wait_empty
     _tx_wait_empty
     _eeprom_read
     _eeprom_write
     _start_app
   _check_appspace
     _flash_read_row
     _calc_crc16
   _start_app

 _isr_redirect (ROOT)

 Address spaces:
Name               Size   Autos  Total    Cost      Usage
BIGRAM             3F0      0       0       0        0.0%
EEDATA             100      0       0       0        0.0%
NULL                 0      0       0       0        0.0%
CODE                 0      0       0       0        0.0%
BITCOMMON            E      0       1       1        7.1%
BITSFR0              0      0       0       1        0.0%
SFR0                 0      0       0       1        0.0%
COMMON               E      C       D       2       92.9%
BITSFR1              0      0       0       2        0.0%
SFR1                 0      0       0       2        0.0%
BITSFR2              0      0       0       3        0.0%
SFR2                 0      0       0       3        0.0%
STACK                0      0       4       3        0.0%
BITBANK0            50      0       0       4        0.0%
BITSFR3              0      0       0       4        0.0%
SFR3                 0      0       0       4        0.0%
BANK0               50     1D      23       5       43.8%
BITSFR4              0      0       0       5        0.0%
SFR4                 0      0       0       5        0.0%
BITBANK1            50      0       0       6        0.0%
BITSFR5              0      0       0       6        0.0%
SFR5                 0      0       0       6        0.0%
BANK1               50      0      50       7      100.0%
BITSFR6              0      0       0       7        0.0%
SFR6                 0      0       0       7        0.0%
BITBANK2            50      0       0       8        0.0%
BITSFR7              0      0       0       8        0.0%
SFR7                 0      0       0       8        0.0%
BANK2               50      0       0       9        0.0%
BITSFR8              0      0       0       9        0.0%
SFR8                 0      0       0       9        0.0%
BITBANK3            50      0       0      10        0.0%
BITSFR9              0      0       0      10        0.0%
SFR9                 0      0       0      10        0.0%
BANK3               50      0       0      11        0.0%
BITSFR10             0      0       0      11        0.0%
SFR10                0      0       0      11        0.0%
BITBANK4            50      0       0      12        0.0%
BITSFR11             0      0       0      12        0.0%
SFR11                0      0       0      12        0.0%
BANK4               50      0       0      13        0.0%
BITSFR12             0      0       0      13        0.0%
SFR12                0      0       0      13        0.0%
BITBANK5            50      0       0      14        0.0%
BITSFR13             0      0       0      14        0.0%
SFR13                0      0       0      14        0.0%
BANK5               50      0       0      15        0.0%
BITSFR14             0      0       0      15        0.0%
SFR14                0      0       0      15        0.0%
BITBANK6            50      0       0      16        0.0%
BITSFR15             0      0       0      16        0.0%
SFR15                0      0       0      16        0.0%
BANK6               50      0       0      17        0.0%
BITSFR16             0      0       0      17        0.0%
SFR16                0      0       0      17        0.0%
BITBANK7            50      0       0      18        0.0%
BITSFR17             0      0       0      18        0.0%
SFR17                0      0       0      18        0.0%
BANK7               50      0       0      19        0.0%
BITSFR18             0      0       0      19        0.0%
SFR18                0      0       0      19        0.0%
BITSFR19             0      0       0      20        0.0%
SFR19                0      0       0      20        0.0%
ABS                  0      0      80      20        0.0%
BITBANK8            50      0       0      21        0.0%
BITSFR20             0      0       0      21        0.0%
SFR20                0      0       0      21        0.0%
BANK8               50      0       0      22        0.0%
BITSFR21             0      0       0      22        0.0%
SFR21                0      0       0      22        0.0%
BITBANK9            50      0       0      23        0.0%
BITSFR22             0      0       0      23        0.0%
SFR22                0      0       0      23        0.0%
BANK9               50      0       0      24        0.0%
BITSFR23             0      0       0      24        0.0%
SFR23                0      0       0      24        0.0%
BITBANK10           50      0       0      25        0.0%
BITSFR24             0      0       0      25        0.0%
SFR24                0      0       0      25        0.0%
BANK10              50      0       0      26        0.0%
BITSFR25             0      0       0      26        0.0%
SFR25                0      0       0      26        0.0%
BITBANK11           50      0       0      27        0.0%
BITSFR26             0      0       0      27        0.0%
SFR26                0      0       0      27        0.0%
BANK11              50      0       0      28        0.0%
BITSFR27             0      0       0      28        0.0%
SFR27                0      0       0      28        0.0%
BITBANK12           30      0       0      29        0.0%
BITSFR28             0      0       0      29        0.0%
SFR28                0      0       0      29        0.0%
BANK12              30      0       0      30        0.0%
BITSFR29             0      0       0      30        0.0%
SFR29                0      0       0      30        0.0%
BITSFR30             0      0       0      31        0.0%
SFR30                0      0       0      31        0.0%
DATA                 0      0      84      31        0.0%
BITSFR31             0      0       0      32        0.0%
SFR31                0      0       0      32        0.0%


Microchip Technology PIC Macro Assembler V1.12 build 49521 
Symbol Table                                                                                   Sun Mar 31 02:21:22 2013

                 __CFG_CP$OFF 0000                            l61 050F                            l70 0401  
                          l71 0418                            l72 041F                            l80 04FC  
                          l81 04FE                            l66 0411                            l82 04FE  
                          l90 04D5                            l67 03D9                            l75 04AD  
                          l91 04DB                            l68 03ED                            l92 04DE  
                          l69 040C                            l85 0506                            l78 04F0  
                          l79 04FD                            l95 012A                            l96 013A  
                          l88 04D5                            l97 0157                            l89 04CB  
                          l98 0183                            l99 01A7                            _RD 0CA8  
                          _WR 0CA9                           l100 01CB                           l101 01B6  
                         l110 02C1                           l102 01CF                           l111 02FD  
                         l200 0374                           l120 0038                           l201 0336  
                         l105 0293                           l121 011F                           l202 036A  
                         l130 009E                           l122 0042                           l203 0376  
                         l107 0290                           l131 009F                           l123 004C  
                         l108 0307                           l124 00FB                           l140 00F0  
                         l132 00D4                           l109 02F2                           l141 00F5  
                         l133 00BA                           l125 006B                           l142 011D  
                         l126 0112                           l134 00D3                           l150 0212  
                         l135 00D9                           l127 0071                           l151 01FE  
                         l216 04AF                           l240 0464                           l136 00DA  
                         l128 0073                           l160 0254                           l152 0211  
                         l217 04B6                           l241 0478                           l137 00E8  
                         l129 0098                           l153 025C                           l161 0250  
                         l145 01D0                           l218 04C9                           l242 0488  
                         l138 00EE                           l162 0255                           l154 021C  
                         l146 01DF                           l170 03BF                           l243 0489  
                         l139 00EF                           l147 0274                           l155 026E  
                         l163 025A                           l171 03CB                           l244 0489  
                         l164 0275                           l156 0221                           l148 01E1  
                         l172 03CE                           l237 045D                           l165 0275  
                         l157 0226                           l149 01F0                           l173 03CF  
                         l238 045E                           l158 022A                           l174 03CF  
                         l239 045E                           l159 023D                           l168 039D  
                         l169 03B2                           l194 0438                           l195 045A  
                         l196 045B                           l199 032D                           _GIE 005F  
              _check_appspace 0276                           u600 040B                           u601 040A  
                         u610 0417                  __CFG_CPD$OFF 0000                           u611 0416  
                         u620 04F5                           u621 04F4                           u550 03EB  
                         u630 04FA                           u551 03EA                           u631 04F9  
                         u560 03F2                           u800 003F                           u640 04D0  
                         u561 03F0                           u801 003E                           u641 04CF  
                         u730 0289                           u810 0049                           u650 04DA  
                         u731 0288                           u811 0048                           u651 04D9  
                         u740 028F                           u900 0119                           u820 0077  
                         u741 028E                           u901 0118                           u821 0076  
                         u910 032B                           u590 03FC                           u574 03F3  
                         u750 02FC                           u830 0081                           u911 032A  
                         u591 03FB                           u751 02FB                           u831 0080  
                         u920 0334                           u840 008A                           u921 0333  
                         u585 03F4                           u841 0089                           u930 0369  
                         u770 0436                           u850 00A3                           u931 0368  
                         u771 0435                           u755 02F8                           u851 00A2  
                         u835 007D                           u940 0374                           u780 045A  
                         u860 00AD                           u941 0373                           u781 0459  
                         u765 0303                           u861 00AC                           u950 0463  
                         u870 00B8                           u790 0035                           u951 0462  
                         u871 00B7                           u791 0034                           u960 0477  
                         u880 00D2                           u961 0476                           u881 00D1  
                         u865 00A9                           u970 0486                           u890 00E2  
                         u971 0485                           u891 00E1                           u795 0031  
                         _cmd 0041                           _pkt 00A0                  __CFG_BORV$LO 0000  
                         wreg 0009                  __CFG_IESO$ON 0000                  __CFG_LVP$OFF 0000  
                        l1201 04A6                          l1211 0503                          l1203 04AD  
                        l1301 02EC                          l1205 04F5                          l1213 04CA  
                        l1311 042A                          l1303 02F2                          l1207 04FB  
                        l1215 04D0                          l1151 050D                          l1321 0438  
                        l1313 042C                          l1161 03E5                          l1153 03D1  
                        l1305 02FD                          l1401 00E8                          l1209 0500  
                        l1217 04DB                          l1331 043F                          l1323 043A  
                        l1315 042D                          l1171 0401                          l1163 03EC  
                        l1155 03D7                          l1307 0307                          l1403 00F0  
                        l1411 0112                          l1219 04DE                          l1421 0317  
                        l1333 0447                          l1325 043C                          l1317 042F  
                        l1309 0420                          l1181 041F                          l1173 0405  
                        l1165 03F3                          l1157 03DA                          l1413 0119  
                        l1405 00F5                          l1341 0010                          l1431 031D  
                        l1423 0318                          l1335 044B                          l1327 043D  
                        l1319 0437                          l1167 03F8                          l1175 040C  
                        l1159 03E4                          l1415 011F                          l1407 00FA  
                        l1351 003F                          l1343 0027                          l1191 0491  
                        l1183 048B                          l1441 0324                          l1433 031F  
                        l1425 0319                          l1417 0308                          l1337 044F  
                        l1329 043E                          l1169 03FC                          l1177 0411  
                        l1281 0282                          l1409 00FB                          l1361 004C  
                        l1353 0041                          l1345 0035                          l1193 0492  
                        l1185 048E                          l1601 012A                          l1451 0336  
                        l1443 0325                          l1435 0320                          l1427 031A  
                        l1419 0315                          l1339 0453                          l1179 0418  
                        l1291 02B8                          l1283 0289                          l1371 006E  
                        l1363 0060                          l1355 0042                          l1347 0037  
                        l1195 0493                          l1187 048F                          l1611 0148  
                        l1603 012F                          l1461 0353                          l1453 0344  
                        l1445 032C                          l1437 0321                          l1429 031B  
                        l1293 02BA                          l1285 0290                          l1381 00A3  
                        l1373 0077                          l1365 0066                          l1357 0049  
                        l1349 0038                          l1197 049E                          l1189 0490  
                        l1621 0169                          l1613 0149                          l1605 0133  
                        l1701 025B                          l1471 035A                          l1463 0355  
                        l1455 034B                          l1447 032E                          l1439 0322  
                        l1295 02BE                          l1287 0292                          l1279 0276  
                        l1391 00C7                          l1383 00AD                          l1375 0081  
                        l1367 006B                          l1359 004B                          l1199 04A5  
                        l1623 016D                          l1615 0156                          l1631 0183  
                        l1607 013A                          l1703 025C                          l1711 037C  
                        l1481 0464                          l1473 035F                          l1465 0357  
                        l1457 034F                          l1449 0335                          l1297 02C1  
                        l1289 0293                          l1393 00CC                          l1385 00B1  
                        l1377 008A                          l1369 006D                          l1641 01A7  
                        l1633 0199                          l1625 0174                          l1617 0157  
                        l1609 0147                          l1705 026E                          l1721 038A  
                        l1713 037E                          l1491 047B                          l1483 046D  
                        l1475 0363                          l1467 0358                          l1459 0351  
                        l1299 02E7                          l1387 00B9                          l1395 00D4  
                        l1379 0098                          l1643 01B1                          l1651 01CB  
                        l1635 019D                          l1627 0178                          l1619 0162  
                        l1707 0271                          l1731 03AE                          l1723 038B  
                        l1715 0383                          l1557 04B6                          l1493 047F  
                        l1485 0471                          l1469 0359                          l1477 036A  
                        l1397 00DA                          l1389 00BA                          l1645 01B6  
                        l1637 019F                          l1629 017C                          l1661 01E8  
                        l1653 01D0                          l1741 03CB                          l1733 03B2  
                        l1725 0393                          l1717 0386                          l1709 0377  
                        l1559 04C9                          l1495 0480                          l1487 0473  
                        l1479 036E                          l1399 00E2                          l1647 01BF  
                        l1639 01A6                          l1671 0204                          l1663 01EF  
                        l1655 01D7                          l1735 03BB                          l1727 0399  
                        l1719 0388                          l1497 0481                          l1489 0477  
                        l1649 01C4                          l1681 0221                          l1673 020C  
                        l1665 01F0                          l1657 01DE                          l1737 03BF  
                        l1729 03A9                          l1499 0486                          l1595 0120  
                        l1691 023A                          l1683 0226                          l1667 01F6  
                        l1675 0212                          l1659 01E1                          l1739 03C7  
                        l1597 0122                          l1693 023D                          l1685 022A  
                        l1677 0219                          l1669 01FE                          l1599 0129  
                        l1695 0246                          l1687 022E                          l1679 021C  
                        l1697 0250                          l1689 0231                          l1699 0255  
                        u1100 0139                          u1101 0138                          u1110 0155  
                        u1111 0154                          u1040 04B5                          u1120 0182  
                        u1200 023A                          u1041 04B4                          u1121 0181  
                        u1201 0239                          u1130 01A5                          u1210 0246  
                        u1131 01A4                          u1211 0245                          u1140 01B1  
                        u1220 0399                          u1141 01B0                          u1221 0398  
                        u1150 01CA                          u1230 03AE                          u1151 01C9  
                        u1231 03AD                          u1160 01DD                          u1240 03BB  
                        u1161 01DC                          u1241 03BA                          u1090 0128  
                        u1170 01EE                          u1250 03C7                          u1091 0127  
                        u1171 01ED                          u1251 03C6                          u1180 01F6  
                        u1181 01F5                          u1190 0204                          u1191 0203  
                        u1267 03A3                          _WREN 0CAA                ??_eeprom_write 0072  
                __CFG_WRT$OFF 0000                          _getc 04CA                          _main 0377  
                        fsr0h 0005                          fsr1h 0007                          fsr0l 0004  
                        indf0 0000                          indf1 0001                          fsr1l 0006  
                        _putc 04FF                          btemp 007E                          start 000E  
               __CFG_PLLEN$ON 0000           _send_query_response 0120        __end_of_check_appspace 0308  
                       ?_getc 0070                         ?_main 0070                         _EEADR 0191  
               __CFG_WDTE$OFF 0000                         _CARRY 0018                         ?_putc 0070  
                       i1l177 000A                         _RCREG 0199                         _RCSTA 019D  
                       _PORTA 000C                         _PORTC 000E                         _TRISA 008C  
                       _TRISC 008E                         _TXREG 019A                         _TXSTA 019E  
               __CFG_PWRTE$ON 0000                __CFG_FCMEN$OFF 0000  __size_of_read_configmem_word 0024  
              __pbitbssCOMMON 03E0          ?_send_query_response 0070                         putc@c 0071  
                       wtemp0 007E               __initialization 04DF                  __end_of_getc 04DF  
                __end_of_main 03D1                  __end_of_putc 0507               ?_check_appspace 0070  
                      ??_getc 0071                        ??_main 003A                        ??_putc 0071  
      __size_of_tx_wait_empty 000F               check_appspace@i 002A                        _EEADRH 0192  
                      _EEADRL 0191                        _EEDATA 0193                        _EEDATH 0194  
                      _EEDATL 0193                        _EECON1 0195                        _EECON2 0196  
       ??_send_query_response 0020                        i1l1149 0008                        _OSCCON 0099  
                      _SPBRGL 019B              ??_flash_read_row 0074          __size_of_eeprom_read 001C  
              __CFG_STVREN$ON 0000          __end_of_eeprom_write 048A                        clrloop 0508  
            ??_process_packet 002E       __end_of__initialization 04ED               eeprom_read@addr 0074  
               _tx_wait_empty 04F0                __pcstackCOMMON 0070                 ?_isr_redirect 0070  
                  _calc_crc16 03D1             eeprom_write@value 0071         __end_of_do_bootloader 0276  
                  __pbssBANK0 003D                    __pbssBANK1 00A0      __size_of_flash_write_row 006F  
              ?_tx_wait_empty 0070                    __pmaintext 0377                    __pintentry 0004  
         _read_configmem_word 048A                ??_isr_redirect 0070               flash_read_row@i 0078  
          __size_of_start_app 0003          ?_read_configmem_word 0071              ??_check_appspace 0020  
       __size_of_eeprom_write 002E    flash_read_row@pm_word_addr 0071          check_appspace@pmaddr 0028  
                 ?_calc_crc16 0071   flash_write_row@pm_word_addr 0071         ??_read_configmem_word 0073  
        end_of_initialization 04ED               ??_tx_wait_empty 0071                  _eeprom_write 045C  
           flash_read_row@pma 0075             ??_flash_write_row 0074               process_packet@i 0036  
                   _RCSTAbits 019D             __end_of_start_app 0510           process_packet@crc16 0030  
         process_packet@param 0033           process_packet@seqno 003F                     _PORTAbits 000C  
            __CFG_FOSC$INTOSC 0000   __end_of_send_query_response 01D0                 ??_eeprom_read 0071  
                   _TXSTAbits 019E          __end_of_isr_redirect 000E           __size_of_calc_crc16 004F  
         start_initialization 04DF           __end_of_eeprom_read 04CA       __size_of_flash_read_row 003C  
              do_bootloader@c 0039                do_bootloader@i 0038                 __pcstackBANK0 0020  
            eeprom_write@addr 0074       __size_of_process_packet 0110                     __pnvBANK0 0042  
      check_appspace@appcrc16 0024        __size_of_do_bootloader 00A6                     __ptext540 0276  
                   __ptext532 01D0                     __ptext541 03D1                     __ptext533 050D  
                   __ptext542 0420                     __ptext534 04CA                     __ptext543 0308  
                   __ptext535 0120                     __ptext544 045C                     __ptext536 048A  
                   __ptext545 04AE                     __ptext537 04FF                     __ptext538 04F0  
                   __ptext539 0010       process_packet@eeaddress 0032                  ??_calc_crc16 0075  
         check_appspace@crc16 002C          flash_read_row@buffer 0073               _flash_write_row 0308  
       __size_of_isr_redirect 000A        check_appspace@rowsused 0026                      _LATCbits 010E  
                 _eeprom_read 04AE              flash_read_row@wa 0076                      _PIR1bits 0011  
                   _myaddress 0042            __end_of_calc_crc16 0420                   calc_crc16@i 0077  
                 calc_crc16@j 0078            process_packet@pseq 003D               calc_crc16@crcin 0071  
             calc_crc16@dogen 03E0                     _start_app 050D         flash_write_row@buffer 0073  
                _isr_redirect 0004   __end_of_read_configmem_word 04AE   read_configmem_word@wordaddr 0075  
               _do_bootloader 01D0         __end_of_tx_wait_empty 04FF                    _EECON1bits 0195  
              _flash_read_row 0420                    ?_start_app 0070       __size_of_check_appspace 0092  
     __end_of_flash_write_row 0377                ?_do_bootloader 0070                _process_packet 0010  
__size_of_send_query_response 00B0                 __size_of_getc 0015                 __size_of_main 005A  
               __size_of_putc 0008                      clear_ram 0507        __end_of_flash_read_row 045C  
   read_configmem_word@retval 0076          send_query_response@i 0025          send_query_response@q 0024  
        send_query_response@v 0022             __CFG_BOREN$SBODEN 0000        process_packet@write_en 03E1  
      __end_of_process_packet 0120                      intlevel1 0000             __CFG_CLKOUTEN$OFF 0000  
               calc_crc16@crc 0079                 calc_crc16@buf 0073                 calc_crc16@len 0074  
             ?_flash_read_row 0071                   ??_start_app 0071          process_packet@acknak 0035  
            ?_flash_write_row 0071               ??_do_bootloader 0037               ?_process_packet 0070  
               ?_eeprom_write 0071             flash_write_row@wa 0076                  ?_eeprom_read 0070  
            flash_write_row@b 0075              flash_write_row@i 007A              flash_write_row@j 007B  
            flash_write_row@v 0078  
